(dp1
S'peak2peak'
p2
F0.0034250319223468645
sS'samples'
p3
(lp4
F-3858
aF-3585
aF-1720
aF1178
aF3355
aF3252
aF208
aF-4549
aF-7818
aF-7030
aF-1483
aF4441
aF5394
aF1714
aF-3614
aF-7002
aF-6704
aF-3533
aF373
aF2561
aF2386
aF584
aF-1872
aF-3396
aF-3369
aF-2623
aF-2090
aF-1756
aF-656
aF1489
aF1796
aF-807
aF-3784
aF-4437
aF-1950
aF694
aF336
aF-1810
aF-2852
aF-1629
aF392
aF736
aF-845
aF-2535
aF-3148
aF-2649
aF-1291
aF449
aF1215
aF52
aF-2370
aF-3999
aF-3222
aF-622
aF1088
aF221
aF-1659
aF-2293
aF-1518
aF-760
aF-853
aF-1385
aF-1608
aF-1232
aF-1022
aF-1494
aF-1742
aF-1404
aF-1209
aF-1297
aF-1214
aF-518
aF290
aF266
aF-770
aF-2329
aF-3634
aF-3937
aF-2850
aF-657
aF1490
aF2482
aF1543
aF-1283
aF-4379
aF-5486
aF-3823
aF-570
aF1554
aF913
aF-981
aF-1720
aF-917
aF-287
aF-1483
aF-3773
aF-4743
aF-2392
aF2149
aF4121
aF1643
aF-3267
aF-7289
aF-7797
aF-3492
aF3001
aF6022
aF4376
aF-711
aF-6445
aF-8950
aF-6730
aF-1687
aF2259
aF2374
aF604
aF658
aF1003
aF-299
aF-3363
aF-6264
aF-6524
aF-3134
aF2087
aF4663
aF3567
aF-244
aF-5205
aF-8280
aF-6983
aF-1297
aF4279
aF5078
aF1292
aF-3824
aF-6524
aF-5664
aF-2686
aF-8
aF1166
aF1462
aF902
aF-818
aF-2838
aF-3963
aF-3471
aF-1716
aF211
aF1288
aF803
aF-1204
aF-3448
aF-4213
aF-2768
aF-137
aF1628
aF1492
aF57
aF-1743
aF-3516
aF-4603
aF-4191
aF-2085
aF864
aF2268
aF1284
aF-435
aF-1675
aF-2415
aF-3183
aF-4150
aF-3700
aF-952
aF1898
aF2394
aF820
aF-1427
aF-3190
aF-4027
aF-4171
aF-3610
aF-998
aF2330
aF3164
aF1538
aF-1437
aF-4368
aF-6199
aF-5973
aF-3487
aF722
aF4528
aF4804
aF1717
aF-2875
aF-6753
aF-7979
aF-6448
aF-2223
aF2992
aF5852
aF5019
aF583
aF-5462
aF-9203
aF-8346
aF-3302
aF2748
aF5313
aF3939
aF217
aF-4244
aF-7012
aF-6568
aF-3157
aF659
aF2592
aF2807
aF2130
aF13
aF-3686
aF-7089
aF-7625
aF-3433
aF3193
aF6084
aF3433
aF-2382
aF-7437
aF-8372
aF-4341
aF1919
aF5026
aF3414
aF-1065
aF-5536
aF-7071
aF-4640
aF-82
aF2692
aF2505
aF553
aF-2084
aF-4182
aF-4892
aF-3821
aF-989
aF1940
aF3099
aF1805
aF-1403
aF-4705
aF-6079
aF-4500
aF-862
aF2111
aF2433
aF801
aF-1201
aF-2645
aF-3517
aF-4005
aF-3650
aF-2022
aF720
aF2770
aF2273
aF-209
aF-3093
aF-5103
aF-5426
aF-3450
aF380
aF3279
aF2640
aF-1246
aF-5295
aF-5916
aF-2133
aF2271
aF2525
aF-796
aF-3698
aF-3381
aF-743
aF625
aF-738
aF-3198
aF-4213
aF-2127
aF1522
aF3469
aF2119
aF-1915
aF-6035
aF-7204
aF-4032
aF1367
aF3992
aF2356
aF-866
aF-2702
aF-2537
aF-2520
aF-3841
aF-4885
aF-3405
aF699
aF4125
aF4030
aF665
aF-4126
aF-7517
aF-7556
aF-3777
aF1923
aF4960
aF4140
aF531
aF-4321
aF-7268
aF-6848
aF-4012
aF-211
aF2987
aF4108
aF2661
aF-1018
aF-5494
aF-8067
aF-6706
aF-1474
aF3765
aF4948
aF2344
aF-2314
aF-6230
aF-7193
aF-5185
aF-1446
aF1797
aF3271
aF2919
aF609
aF-3010
aF-6090
aF-6643
aF-3766
aF795
aF3193
aF2354
aF226
aF-2044
aF-3941
aF-5040
aF-4706
aF-2501
aF844
aF3181
aF2925
aF532
aF-3063
aF-6298
aF-7529
aF-5197
aF858
aF5562
aF5306
aF633
aF-5739
aF-9108
aF-7542
aF-1628
aF4037
aF5051
aF2676
aF-990
aF-4100
aF-5416
aF-4989
aF-3446
aF-1946
aF-869
aF1358
aF3607
aF3570
aF13
aF-5555
aF-9225
aF-7811
aF-982
aF5559
aF6488
aF2807
aF-3003
aF-7642
aF-8489
aF-5225
aF484
aF4036
aF3389
aF702
aF-1414
aF-2196
aF-2962
aF-4424
aF-5548
aF-4215
aF175
aF3934
aF4253
aF1657
aF-2465
aF-6002
aF-7412
aF-6013
aF-1748
aF2978
aF4591
aF2492
aF-1400
aF-4433
aF-5027
aF-3864
aF-2602
aF-1432
aF17
aF1550
aF2002
aF314
aF-2367
aF-4177
aF-4600
aF-3697
aF-1478
aF1012
aF2485
aF2075
aF-300
aF-3319
aF-5161
aF-5374
aF-3286
aF764
aF3430
aF3316
aF461
aF-4127
aF-7233
aF-6251
aF-1766
aF2792
aF4062
aF1486
aF-1969
aF-4735
aF-6223
aF-4841
aF-935
aF2944
aF3624
aF1150
aF-2311
aF-5007
aF-5674
aF-4416
aF-1969
aF1227
aF3503
aF2884
aF-589
aF-4766
aF-6740
aF-4910
aF-444
aF2810
aF2713
aF478
aF-2360
aF-4417
aF-4939
aF-3920
aF-1451
aF1431
aF2875
aF2186
aF-141
aF-3255
aF-5661
aF-6065
aF-3750
aF178
aF3031
aF3494
aF1667
aF-1771
aF-5115
aF-6113
aF-3893
aF-35
aF2186
aF1098
aF-1749
aF-3345
aF-2255
aF-17
aF693
aF-872
aF-2965
aF-3787
aF-2664
aF-275
aF1434
aF1242
aF-669
aF-3249
aF-4573
aF-3398
aF-1014
aF367
aF-19
aF-294
aF827
aF1375
aF-738
aF-4540
aF-6847
aF-5411
aF-776
aF3154
aF3598
aF1641
aF-813
aF-3173
aF-5094
aF-5699
aF-4206
aF-911
aF2077
aF2889
aF1744
aF-648
aF-3684
aF-5999
aF-5494
aF-1177
aF3377
aF3073
aF-1478
aF-5701
aF-5584
aF-787
aF3191
aF1907
aF-2617
aF-5741
aF-4751
aF-612
aF2652
aF2804
aF537
aF-2905
aF-5705
aF-5750
aF-2588
aF1147
aF2013
aF242
aF-1092
aF-236
aF880
aF-810
aF-4757
aF-7343
aF-5747
aF154
aF5227
aF5204
aF1119
aF-4568
aF-8416
aF-8307
aF-3678
aF2687
aF5529
aF3662
aF-605
aF-4264
aF-5861
aF-5804
aF-4693
aF-2155
aF1393
aF4001
aF3803
aF336
aF-4293
aF-7081
aF-6854
aF-3996
aF133
aF3340
aF3876
aF1617
aF-2230
aF-5146
aF-5252
aF-3072
aF-936
aF-220
aF17
aF591
aF714
aF-667
aF-3116
aF-4408
aF-3152
aF-470
aF1555
aF1602
aF-41
aF-2268
aF-4087
aF-4500
aF-2827
aF-172
aF1418
aF1258
aF75
aF-1161
aF-2280
aF-3454
aF-3829
aF-2676
aF-378
aF1354
aF1041
aF-411
aF-1144
aF-1318
aF-2113
aF-3698
aF-4751
aF-3489
aF-64
aF3191
aF3809
aF1428
aF-2525
aF-6084
aF-7359
aF-4786
aF937
aF4679
aF3381
aF-1141
aF-5187
aF-5518
aF-2360
aF197
aF-410
aF-2272
aF-2296
aF11
aF1994
aF1118
aF-2171
aF-5184
aF-5690
aF-2990
aF1267
aF3665
aF2850
aF-863
aF-5331
aF-7319
aF-5289
aF-435
aF3432
aF3659
aF1251
aF-2072
aF-4668
aF-5308
aF-4136
aF-1941
aF327
aF1815
aF2193
aF1130
aF-1659
aF-4850
aF-6228
aF-4566
aF-413
aF3117
aF3391
aF1201
aF-1955
aF-4979
aF-6612
aF-5673
aF-2034
aF2503
aF4648
aF2961
aF-1503
aF-6048
aF-7967
aF-6382
aF-1567
aF3240
aF4822
aF3426
aF-230
aF-4564
aF-7055
aF-6656
aF-3688
aF192
aF2298
aF2443
aF1977
aF186
aF-2452
aF-4795
aF-5620
aF-5200
aF-2970
aF1218
aF4048
aF4126
aF1343
aF-3777
aF-7695
aF-7733
aF-4152
aF505
aF3116
aF2593
aF1247
aF-261
aF-2413
aF-4215
aF-4914
aF-4534
aF-2867
aF6
aF2661
aF3863
aF2699
aF-1263
aF-6130
aF-8463
aF-6770
aF-1811
aF3109
aF4956
aF3789
aF741
aF-3334
aF-6754
aF-7986
aF-6276
aF-1754
aF3204
aF5585
aF4570
aF224
aF-5554
aF-8879
aF-7573
aF-1572
aF4252
aF4833
aF1507
aF-2478
aF-4729
aF-4619
aF-3333
aF-1698
aF-29
aF842
aF41
aF-1628
aF-2432
aF-1896
aF-1085
aF-1210
aF-1686
aF-1025
aF325
aF200
aF-2054
aF-4170
aF-3470
aF-267
aF2028
aF1454
aF-654
aF-2742
aF-4084
aF-4400
aF-3404
aF-681
aF2573
aF3539
aF1057
aF-3053
aF-5864
aF-5673
aF-2942
aF391
aF2505
aF2781
aF961
aF-2584
aF-5670
aF-5676
aF-2235
aF1463
aF1880
aF-154
aF-1781
aF-1582
aF-483
aF-503
aF-2134
aF-3878
aF-3834
aF-1703
aF994
aF2165
aF949
aF-1966
aF-4333
aF-3661
aF-203
aF1949
aF-175
aF-4366
aF-6004
aF-2209
aF3879
aF5356
aF1010
aF-5529
aF-9375
aF-7748
aF-1226
aF5091
aF6275
aF2617
aF-3128
aF-7314
aF-7701
aF-4262
aF351
aF2224
aF1181
aF142
aF340
aF507
aF-1118
aF-4334
aF-6710
aF-5776
aF-1220
aF3374
aF4082
aF1398
aF-2307
aF-4566
aF-4206
aF-2749
aF-2228
aF-2352
aF-1388
aF1046
aF2936
aF1971
aF-1516
aF-5007
aF-6240
aF-4571
aF-1235
aF1669
aF2671
aF1727
aF-371
aF-2734
aF-4117
aF-4008
aF-3157
aF-2502
aF-1400
aF784
aF3041
aF3241
aF358
aF-4105
aF-7103
aF-6949
aF-3777
aF426
aF3186
aF3979
aF2893
aF-229
aF-4524
aF-7739
aF-7669
aF-3705
aF2004
aF5000
aF3867
aF-252
aF-5148
aF-7763
aF-6368
aF-1474
aF2950
aF3696
aF1672
aF-739
aF-2601
aF-4015
aF-4984
aF-5088
aF-3431
aF308
aF3599
aF4048
aF1632
aF-2694
aF-6666
aF-7613
aF-4562
aF788
aF3828
aF2462
aF-1188
aF-3880
aF-3742
aF-1909
aF-875
aF-1177
aF-1442
aF-863
aF-163
aF-319
aF-1321
aF-2482
aF-3288
aF-3161
aF-1244
aF1959
aF3559
aF1276
aF-3660
aF-7280
aF-6693
aF-1880
aF3118
aF4249
aF2191
aF-1211
aF-4509
aF-6450
aF-5910
aF-2499
aF1810
aF3459
aF1735
aF-1105
aF-2885
aF-3412
aF-3644
aF-3457
aF-2492
aF-667
aF876
aF755
aF116
aF243
aF314
aF-1287
aF-4615
aF-7182
aF-5464
aF311
aF4835
aF4843
aF1331
aF-3763
aF-7277
aF-7524
aF-4441
aF623
aF4293
aF3678
aF60
aF-3244
aF-4413
aF-3565
aF-2630
aF-3133
aF-2523
aF403
aF3151
aF3250
aF257
aF-3856
aF-6933
aF-6852
aF-3197
aF1726
aF4521
aF3700
aF-160
aF-4449
aF-6204
aF-4620
aF-1675
aF-98
aF-419
aF436
aF1601
aF771
aF-1909
aF-4670
aF-5373
aF-3241
aF454
aF2879
aF2599
aF-48
aF-3812
aF-6383
aF-5676
aF-1260
aF3243
aF3666
aF290
aF-3909
aF-5866
aF-4333
aF-794
aF1777
aF1780
aF-131
aF-2490
aF-3788
aF-3089
aF-1182
aF-118
aF-523
aF-1135
aF-867
aF-290
aF-842
aF-2377
aF-3072
aF-1728
aF280
aF154
aF-2212
aF-3737
aF-2408
aF804
aF2801
aF1658
aF-1691
aF-4911
aF-6482
aF-5582
aF-1837
aF2867
aF4856
aF3087
aF-1289
aF-5851
aF-7850
aF-6621
aF-2918
aF1488
aF4306
aF4563
aF2061
aF-2813
aF-7353
aF-8557
aF-5541
aF-18
aF3819
aF3952
aF2111
aF-278
aF-2608
aF-4951
aF-7138
aF-7520
aF-4030
aF2404
aF6281
aF5319
aF303
aF-6223
aF-9906
aF-8815
aF-2292
aF5113
aF6980
aF3802
aF-2182
aF-7360
aF-8090
aF-4433
aF517
aF2179
aF20
aF-2175
aF-1153
aF1722
aF1855
aF-1830
aF-5852
aF-6533
aF-2637
aF2270
aF3433
aF1039
aF-2253
aF-3989
aF-3340
aF-1406
aF10
aF-428
aF-2193
aF-3337
aF-2108
aF889
aF2161
aF-362
aF-4414
aF-5843
aF-2645
aF2329
aF3690
aF406
aF-4165
aF-6538
aF-5027
aF-781
aF2548
aF2919
aF773
aF-2521
aF-4938
aF-4788
aF-2524
aF-422
aF397
aF690
aF1033
aF504
aF-1907
aF-5065
aF-6186
aF-3409
aF1288
aF3583
aF2074
aF-896
aF-2682
aF-3122
aF-3667
aF-4296
aF-3664
aF-1025
aF2164
aF3716
aF2615
aF-641
aF-4621
aF-7781
aF-8033
aF-4026
aF2384
aF5820
aF4477
aF41
aF-5013
aF-7776
aF-7465
aF-4694
aF-257
aF3650
aF4775
aF2967
aF-1155
aF-5660
aF-7879
aF-6783
aF-2731
aF2029
aF4216
aF2898
aF-669
aF-4152
aF-5053
aF-2821
aF-287
aF-572
aF-2607
aF-3244
aF-1119
aF2027
aF2946
aF640
aF-3092
aF-5717
aF-5816
aF-3317
aF385
aF3021
aF2962
aF377
aF-2744
aF-4146
aF-3477
aF-2294
aF-2085
aF-2285
aF-1147
aF1227
aF2566
aF1417
aF-1363
aF-3864
aF-5033
aF-4947
aF-3617
aF-757
aF2624
aF4112
aF2554
aF-1330
aF-5363
aF-7463
aF-6780
aF-2734
aF2603
aF5503
aF4625
aF59
aF-5734
aF-8785
aF-7281
aF-2067
aF2866
aF3901
aF2419
aF-190
aF-3185
aF-5264
aF-5636
aF-4428
aF-1497
aF1924
aF3266
aF2170
aF-851
aF-4344
aF-6800
aF-5359
aF-233
aF3667
aF3395
aF-286
aF-4463
aF-5886
aF-3838
aF-274
aF1662
aF623
aF-1925
aF-2914
aF-1423
aF560
aF613
aF-1610
aF-4753
aF-5287
aF-1761
aF2774
aF4303
aF1744
aF-3473
aF-7323
aF-7149
aF-3005
aF2710
aF5309
aF3001
aF-2352
aF-6980
aF-7579
aF-3681
aF1180
aF2657
aF1373
aF176
aF-137
aF-604
aF-2505
aF-5418
aF-6510
aF-4442
aF-538
aF3146
aF4767
aF3855
aF521
aF-4300
aF-7820
aF-8424
aF-5553
aF8
aF4373
aF5899
aF5081
aF1044
aF-5287
aF-9734
aF-9963
aF-5408
aF2608
aF6992
aF6193
aF1671
aF-5059
aF-9082
aF-9375
aF-4872
aF2914
aF6707
aF5536
aF1545
aF-3796
aF-7460
aF-8221
aF-6602
aF-1844
aF3303
aF4737
aF2884
aF-854
aF-4422
aF-5929
aF-5479
aF-3806
aF-1351
aF988
aF2173
aF1609
aF-177
aF-1986
aF-3595
aF-4948
aF-5044
aF-2491
aF1858
aF3968
aF1624
aF-3178
aF-6436
aF-5384
aF-948
aF2221
aF1260
aF-1732
aF-3618
aF-3072
aF-929
aF820
aF799
aF-965
aF-2966
aF-3341
aF-1782
aF-178
aF-819
aF-3117
aF-3796
aF-833
aF3125
aF3510
aF-561
aF-5633
aF-7403
aF-4239
aF1350
aF3865
aF1813
aF-2255
aF-5113
aF-4418
aF-368
aF3195
aF2324
aF-2662
aF-7484
aF-7666
aF-1491
aF5552
aF6337
aF1362
aF-5467
aF-9403
aF-8346
aF-3574
aF1862
aF4879
aF4905
aF2252
aF-2464
aF-6849
aF-8533
aF-6697
aF-2068
aF2607
aF4670
aF4169
aF1461
aF-2962
aF-6752
aF-7668
aF-5308
aF-1188
aF1844
aF2762
aF2755
aF2202
aF124
aF-3698
aF-7484
aF-8531
aF-5058
aF1607
aF5853
aF5298
aF1181
aF-4739
aF-8546
aF-8244
aF-4048
aF1332
aF3812
aF3259
aF1638
aF-257
aF-2355
aF-4647
aF-6402
aF-5960
aF-2377
aF2038
aF4072
aF3156
aF8
aF-3675
aF-5606
aF-4997
aF-2969
aF-1143
aF-413
aF-72
aF967
aF2080
aF1432
aF-1688
aF-5543
aF-7143
aF-4738
aF518
aF4166
aF3510
aF-119
aF-4258
aF-6470
aF-5452
aF-1927
aF1654
aF2988
aF1538
aF-1334
aF-3582
aF-4402
aF-3710
aF-1887
aF82
aF1121
aF840
aF-668
aF-2911
aF-4333
aF-3539
aF-1136
aF979
aF1327
aF-114
aF-1997
aF-2970
aF-2609
aF-1760
aF-1542
aF-1681
aF-1043
aF346
aF1178
aF191
aF-2152
aF-4154
aF-4555
aF-3171
aF-568
aF1651
aF2310
aF1618
aF-889
aF-4298
aF-6281
aF-5612
aF-2447
aF1364
aF3734
aF3843
aF1373
aF-3220
aF-7295
aF-8172
aF-4448
aF2002
aF5346
aF4049
aF-327
aF-5533
aF-7357
aF-4695
aF-549
aF2048
aF1755
aF-949
aF-3650
aF-4045
aF-1251
aF2567
aF2960
aF-1203
aF-6045
aF-7277
aF-3392
aF2444
aF4548
aF1696
aF-2430
aF-4621
aF-4268
aF-2607
aF-1286
aF-1333
aF-1628
aF-734
aF776
aF2170
aF1737
aF-1710
aF-5999
aF-7640
aF-4565
aF1574
aF5017
aF3521
aF-661
aF-4587
aF-6192
aF-5459
aF-3425
aF-920
aF1378
aF2670
aF2433
aF720
aF-2042
aF-5093
aF-7105
aF-6262
aF-1506
aF4047
aF5724
aF2730
aF-3135
aF-7848
aF-8251
aF-4144
aF1355
aF3976
aF3270
aF698
aF-2607
aF-5098
aF-5539
aF-3963
aF-494
aF1851
aF1683
aF300
aF-1192
aF-2585
aF-3471
aF-3405
aF-2496
aF-849
aF611
aF971
aF400
aF-456
aF-1274
aF-2473
aF-4176
aF-4937
aF-3258
aF284
aF3467
aF4090
aF1425
aF-3380
aF-7495
aF-8119
aF-4153
aF2046
aF5437
aF4663
aF1059
aF-3719
aF-7379
aF-8574
aF-6514
aF-997
aF4644
aF6438
aF4130
aF-1279
aF-6976
aF-9658
aF-8278
aF-2285
aF4487
aF6673
aF4553
aF-891
aF-6480
aF-8594
aF-7168
aF-4091
aF-1093
aF1545
aF4407
aF6146
aF4186
aF-2140
aF-8266
aF-10006
aF-7043
aF1108
aF6481
aF6241
aF2768
aF-4153
aF-8322
aF-9023
aF-5253
aF3250
aF7361
aF5779
aF1260
aF-4578
aF-7929
aF-7870
aF-5314
aF-1125
aF2310
aF3614
aF2971
aF391
aF-3438
aF-6400
aF-6599
aF-3360
aF1733
aF4335
aF2724
aF-1331
aF-4860
aF-5649
aF-3848
aF-1551
aF-271
aF324
aF913
aF1264
aF351
aF-1916
aF-4368
aF-5405
aF-3968
aF-683
aF2190
aF2592
aF293
aF-2922
aF-4449
aF-3359
aF-1196
aF-56
aF-199
aF-336
aF40
aF-220
aF-2299
aF-5059
aF-5643
aF-2464
aF2541
aF5199
aF3756
aF-1260
aF-6749
aF-8994
aF-6546
aF-202
aF4842
aF4773
aF881
aF-3816
aF-5889
aF-4499
aF-2284
aF-1891
aF-2533
aF-1624
aF1184
aF3376
aF2894
aF-359
aF-4881
aF-8119
aF-8086
aF-3714
aF2758
aF6410
aF4879
aF-306
aF-5511
aF-8251
aF-7592
aF-4059
aF505
aF3645
aF4234
aF2389
aF-1479
aF-5435
aF-7009
aF-5482
aF-1943
aF1496
aF2951
aF2041
aF-470
aF-3418
aF-5088
aF-3932
aF-1153
aF446
aF128
aF-649
aF-691
aF-296
aF-484
aF-1461
aF-2553
aF-3249
aF-3461
aF-2883
aF-1027
aF1522
aF2691
aF1413
aF-1369
aF-3807
aF-4590
aF-3476
aF-1725
aF-642
aF-75
aF349
aF311
aF-91
aF-327
aF-532
aF-1633
aF-4061
aF-6337
aF-5488
aF-288
aF4729
aF5504
aF1981
aF-4107
aF-8581
aF-8809
aF-4437
aF2310
aF5959
aF4679
aF354
aF-4682
aF-7432
aF-6868
aF-4202
aF-1198
aF1417
aF3677
aF4349
aF2044
aF-2675
aF-6832
aF-8095
aF-5366
aF342
aF4275
aF4429
aF1815
aF-2658
aF-6417
aF-6843
aF-3331
aF1664
aF3406
aF702
aF-2936
aF-4177
aF-2157
aF455
aF176
aF-2483
aF-3897
aF-2221
aF830
aF2345
aF1012
aF-2054
aF-4593
aF-5029
aF-2999
aF501
aF2721
aF1717
aF-1649
aF-4652
aF-4617
aF-1506
aF1591
aF1916
aF-634
aF-3456
aF-4179
aF-2777
aF-841
aF331
aF478
aF340
aF59
aF-1128
aF-3215
aF-4341
aF-3024
aF-498
aF1071
aF551
aF-1610
aF-3101
aF-2383
aF-191
aF1637
aF1252
aF-1645
aF-4997
aF-6313
aF-3923
aF1192
aF4523
aF3293
aF-859
aF-5163
aF-7188
aF-5790
aF-2112
aF1648
aF3306
aF3134
aF887
aF-3052
aF-6225
aF-7025
aF-4396
aF590
aF4031
aF4196
aF1596
aF-2733
aF-6413
aF-7267
aF-4386
aF602
aF3332
aF2348
aF-34
aF-1529
aF-1788
aF-2421
aF-4090
aF-5298
aF-3920
aF210
aF3737
aF3890
aF870
aF-3677
aF-7198
aF-7461
aF-3502
aF2384
aF5066
aF2868
aF-2019
aF-5721
aF-5628
aF-2706
aF-410
aF-746
aF-1700
aF-666
aF1787
aF2433
aF-271
aF-4289
aF-6579
aF-5512
aF-1459
aF2560
aF3463
aF1461
aF-1706
aF-4058
aF-4536
aF-3268
aF-2237
aF-2364
aF-1701
aF996
aF3602
aF3320
aF-577
aF-5641
aF-8300
aF-6875
aF-1789
aF3439
aF5513
aF4332
aF277
aF-5111
aF-8619
aF-8392
aF-3704
aF2780
aF6043
aF5478
aF1872
aF-3844
aF-8601
aF-9566
aF-5744
aF1921
aF6435
aF5082
aF98
aF-5934
aF-8486
aF-6414
aF-1996
aF1020
aF1347
aF971
aF1097
aF1208
aF104
aF-2610
aF-5881
aF-7419
aF-4984
aF1109
aF5940
aF5429
aF21
aF-6550
aF-9347
aF-6647
aF182
aF5137
aF4584
aF471
aF-4262
aF-6609
aF-5460
aF-1908
aF1203
aF1743
aF500
aF-1024
aF-2020
aF-2581
aF-3261
aF-3886
aF-2493
aF1277
aF4027
aF3110
aF-1289
aF-6373
aF-8390
aF-5354
aF946
aF4866
aF4277
aF749
aF-3641
aF-6470
aF-6603
aF-4313
aF-850
aF1868
aF2690
aF1809
aF116
aF-1627
aF-3259
aF-4880
aF-5855
aF-4624
aF-667
aF3554
aF4753
aF2407
aF-2305
aF-6826
aF-8447
aF-6427
aF-1550
aF3439
aF5452
aF3709
aF-816
aF-5670
aF-8096
aF-6799
aF-2293
aF2315
aF4027
aF3154
aF676
aF-2689
aF-5675
aF-7121
aF-5854
aF-1659
aF2918
aF4673
aF3142
aF-435
aF-4296
aF-6882
aF-7058
aF-4443
aF-117
aF3386
aF4245
aF1893
aF-1927
aF-4468
aF-5052
aF-3820
aF-2130
aF-1175
aF-469
aF869
aF2009
aF1053
aF-2191
aF-5533
aF-6142
aF-2500
aF2692
aF4408
aF1281
aF-4264
aF-7935
aF-6729
aF-1046
aF4398
aF5215
aF1737
aF-3769
aF-7708
aF-7670
aF-3457
aF2346
aF4704
aF2853
aF-752
aF-3848
aF-5177
aF-5142
aF-4098
aF-1731
aF1506
aF3731
aF3458
aF163
aF-4736
aF-8180
aF-8126
aF-3790
aF2433
aF5628
aF4700
aF674
aF-4691
aF-8241
aF-8566
aF-5275
aF373
aF4605
aF5644
aF3899
aF-434
aF-5603
aF-8957
aF-8952
aF-3978
aF3382
aF7378
aF6701
aF2009
aF-4891
aF-9303
aF-9080
aF-5118
aF1660
aF5745
aF5122
aF1869
aF-3247
aF-7158
aF-8386
aF-7248
aF-2749
aF2731
aF5382
aF4343
aF62
aF-5445
aF-8339
aF-6662
aF-1791
aF2747
aF3871
aF1828
aF-1366
aF-3804
aF-4452
aF-3585
aF-2581
aF-2149
aF-1171
aF1016
aF3177
aF3012
aF-580
aF-5627
aF-8051
aF-5816
aF-197
aF4133
aF4077
aF845
aF-3132
aF-5487
aF-5203
aF-3057
aF-750
aF657
aF1501
aF1996
aF1189
aF-1703
aF-5578
aF-7617
aF-5553
aF317
aF5107
aF5105
aF1021
aF-4667
aF-8292
aF-7681
aF-3342
aF1657
aF4013
aF3357
aF912
aF-2132
aF-4399
aF-5265
aF-4818
aF-3202
aF-678
aF2261
aF4260
aF3458
aF-693
aF-6127
aF-9158
aF-7677
aF-1542
aF4876
aF6608
aF4381
aF-743
aF-6582
aF-9648
aF-9008
aF-4160
aF3081
aF6582
aF5290
aF710
aF-5454
aF-9202
aF-8596
aF-3689
aF2832
aF5643
aF3614
aF-1246
aF-5870
aF-7004
aF-4594
aF-760
aF1672
aF1429
aF416
aF-67
aF-786
aF-2682
aF-4857
aF-5358
aF-3203
aF546
aF3394
aF3502
aF672
aF-3732
aF-7018
aF-6426
aF-1421
aF3630
aF3594
aF-981
aF-5529
aF-5638
aF-915
aF2991
aF1543
aF-2814
aF-5152
aF-2988
aF1288
aF2670
aF-86
aF-4070
aF-5713
aF-3783
aF74
aF2920
aF2704
aF-436
aF-4338
aF-6023
aF-3615
aF1270
aF3396
aF409
aF-4349
aF-6412
aF-3503
aF1713
aF3768
aF1530
aF-2654
aF-5847
aF-6105
aF-3395
aF481
aF2764
aF2326
aF-124
aF-3046
aF-4514
aF-3818
aF-1864
aF-411
aF-260
aF-342
aF-198
aF-686
aF-1907
aF-2859
aF-2513
aF-990
aF147
aF-181
aF-1477
aF-2403
aF-2057
aF-933
aF-229
aF-463
aF-1042
aF-1942
aF-3055
aF-3242
aF-2058
aF-55
aF1329
aF878
aF-799
aF-2460
aF-3741
aF-4324
aF-3299
aF-644
aF2018
aF2651
aF653
aF-2682
aF-4850
aF-4459
aF-2546
aF-1205
aF-972
aF-351
aF1304
aF2477
aF1200
aF-2312
aF-5729
aF-6853
aF-4970
aF-418
aF3644
aF4548
aF2372
aF-2241
aF-6667
aF-7921
aF-5088
aF-89
aF3210
aF3086
aF942
aF-1409
aF-2876
aF-3472
aF-3698
aF-3566
aF-2545
aF-523
aF1573
aF2282
aF880
aF-1844
aF-4199
aF-4381
aF-2538
aF-623
aF-111
aF-796
aF-1243
aF-434
aF873
aF811
aF-1363
aF-4272
aF-5974
aF-4683
aF-363
aF3616
aF3881
aF741
aF-3895
aF-6816
aF-5470
aF-769
aF2758
aF2091
aF-1104
aF-3408
aF-2897
aF-1013
aF-490
aF-1754
aF-2808
aF-1880
aF358
aF778
aF-1033
aF-2441
aF-2550
aF-1161
aF351
aF282
aF-1609
aF-3304
aF-3288
aF-1902
aF50
aF1057
aF287
aF-1176
aF-2124
aF-1948
aF-1333
aF-2006
aF-3860
aF-4046
aF-932
aF3337
aF4939
aF2079
aF-3730
aF-8329
aF-8924
aF-4775
aF2143
aF6251
aF5634
aF1869
aF-3819
aF-8442
aF-9294
aF-6288
aF-883
aF3712
aF5310
aF4398
aF1397
aF-3546
aF-7938
aF-9628
aF-6901
aF787
aF6785
aF7108
aF2627
aF-4578
aF-9409
aF-9388
aF-4955
aF1617
aF5069
aF4168
aF850
aF-3000
aF-5332
aF-6023
aF-5465
aF-3734
aF-759
aF3143
aF5640
aF4379
aF-944
aF-6963
aF-9479
aF-7104
aF-41
aF5595
aF5689
aF2266
aF-2801
aF-6703
aF-7728
aF-6110
aF-2396
aF1795
aF4232
aF3812
aF596
aF-4024
aF-6928
aF-6411
aF-2364
aF2360
aF3815
aF1984
aF-1345
aF-4385
aF-5763
aF-4655
aF-1858
aF630
aF1704
aF1777
aF1136
aF-447
aF-2771
aF-5372
aF-6749
aF-4715
aF682
aF4712
aF4098
aF-154
aF-4934
aF-6738
aF-4850
aF-1866
aF-735
aF-599
aF958
aF3448
aF3837
aF280
aF-5684
aF-9904
aF-9325
aF-2846
aF5433
aF7806
aF4520
aF-2190
aF-8225
aF-9643
aF-6181
aF1623
aF6642
aF5583
aF778
aF-4735
aF-7344
aF-6278
aF-3294
aF-680
aF513
aF1061
aF1832
aF2195
aF621
aF-3411
aF-7628
aF-8511
aF-4046
aF3141
aF6350
aF4254
aF-1501
aF-7164
aF-9086
aF-6059
aF350
aF4747
aF4645
aF1715
aF-2344
aF-5646
aF-6518
aF-4530
aF-638
aF2553
aF3276
aF2063
aF-654
aF-4281
aF-7028
aF-6871
aF-2958
aF2728
aF5297
aF3504
aF-1192
aF-6082
aF-8227
aF-6651
aF-1225
aF3972
aF5442
aF3754
aF-751
aF-6087
aF-8961
aF-7598
aF-1820
aF4198
aF5792
aF3545
aF-1123
aF-5817
aF-7975
aF-7132
aF-3867
aF482
aF3612
aF4093
aF2445
aF-486
aF-3484
aF-5608
aF-6587
aF-5576
aF-2121
aF2349
aF5047
aF4218
aF-15
aF-5119
aF-7797
aF-6862
aF-2570
aF2265
aF4423
aF2984
aF-552
aF-4045
aF-5974
aF-5467
aF-2957
aF-20
aF2088
aF2925
aF2249
aF-177
aF-3766
aF-6472
aF-6022
aF-2270
aF1826
aF3108
aF1661
aF-1152
aF-3229
aF-3304
aF-2363
aF-1304
aF-596
aF-797
aF-1357
aF-1044
aF-184
aF-419
aF-2522
aF-4745
aF-3999
aF643
aF4819
aF3883
aF-1492
aF-6816
aF-8625
aF-5682
aF545
aF4844
aF5255
aF2870
aF-1704
aF-6211
aF-8236
aF-6977
aF-2545
aF2439
aF4710
aF4401
aF1850
aF-2970
aF-7660
aF-9331
aF-6189
aF1056
aF6187
aF5789
aF1788
aF-3579
aF-7579
aF-8721
aF-6867
aF-2074
aF3217
aF5322
aF4012
aF401
aF-3781
aF-6811
aF-8140
aF-6961
aF-2555
aF3282
aF6371
aF4842
aF-826
aF-7163
aF-9465
aF-6466
aF-704
aF2663
aF2496
aF1436
aF452
aF-723
aF-2730
aF-5275
aF-6054
aF-3427
aF1221
aF4633
aF4385
aF204
aF-5512
aF-8726
aF-6812
aF-5
aF5472
aF4958
aF-294
aF-6289
aF-8361
aF-5084
aF783
aF3622
aF2014
aF-1052
aF-2772
aF-2390
aF-1451
aF-1840
aF-3282
aF-3826
aF-1970
aF1663
aF3853
aF2406
aF-1877
aF-6191
aF-7525
aF-4623
aF490
aF3705
aF3507
aF1204
aF-1620
aF-3812
aF-4978
aF-5357
aF-4385
aF-1501
aF1959
aF4037
aF3642
aF720
aF-3584
aF-7133
aF-8079
aF-5489
aF-77
aF4480
aF5170
aF2640
aF-1603
aF-5574
aF-7603
aF-7281
aF-4406
aF371
aF4414
aF5350
aF3091
aF-1457
aF-5926
aF-7754
aF-6906
aF-4150
aF-67
aF3683
aF5479
aF4425
aF164
aF-5627
aF-8959
aF-8180
aF-3533
aF2929
aF6242
aF5379
aF1076
aF-5087
aF-8961
aF-8002
aF-2432
aF3535
aF4406
aF865
aF-3319
aF-4858
aF-3161
aF-588
aF280
aF-1312
aF-2807
aF-1757
aF953
aF2015
aF-282
aF-3831
aF-5363
aF-2951
aF1607
aF3457
aF857
aF-3706
aF-6373
aF-4479
aF755
aF4152
aF2867
aF-1476
aF-5534
aF-6576
aF-3777
aF970
aF3519
aF2130
aF-1439
aF-4312
aF-4310
aF-1906
aF-75
aF-650
aF-2092
aF-2014
aF155
aF1863
aF808
aF-1950
aF-4144
aF-4542
aF-3072
aF-630
aF1339
aF2095
aF1392
aF-788
aF-3419
aF-4528
aF-3397
aF-1472
aF-457
aF-407
aF-530
aF-180
aF384
aF259
aF-498
aF-1419
aF-2807
aF-4541
aF-5344
aF-3487
aF844
aF4372
aF4234
aF618
aF-4079
aF-7102
aF-6803
aF-3224
aF1424
aF3468
aF2300
aF-930
aF-4295
aF-5155
aF-2792
aF497
aF1717
aF666
aF-1060
aF-2498
aF-3157
aF-3004
aF-2546
aF-1131
aF807
aF1702
aF996
aF-1176
aF-4202
aF-5828
aF-4276
aF-303
aF3379
aF3709
aF199
aF-4553
aF-7178
aF-5743
aF-943
aF3085
aF3636
aF1888
aF-641
aF-3416
aF-5737
aF-6490
aF-4952
aF-1244
aF3009
aF4949
aF3719
aF-187
aF-5304
aF-8721
aF-8416
aF-3672
aF2942
aF6017
aF4769
aF745
aF-4325
aF-7901
aF-8810
aF-6669
aF-1405
aF3963
aF5747
aF4099
aF38
aF-4945
aF-8444
aF-8989
aF-5846
aF280
aF5210
aF5778
aF2570
aF-2523
aF-6384
aF-6949
aF-4820
aF-2124
aF-391
aF849
aF2196
aF2785
aF913
aF-2785
aF-5795
aF-6717
aF-4392
aF-216
aF2924
aF2984
aF888
aF-1650
aF-3630
aF-4246
aF-3764
aF-2857
aF-1545
aF659
aF2902
aF2959
aF-82
aF-4240
aF-6616
aF-5258
aF-755
aF2756
aF2313
aF-1408
aF-4783
aF-4669
aF-1062
aF2906
aF3521
aF319
aF-4222
aF-6861
aF-5560
aF-1129
aF2338
aF2186
aF-129
aF-1707
aF-1023
aF343
aF-706
aF-4468
aF-7355
aF-5712
aF537
aF5964
aF6155
aF1045
aF-5987
aF-9893
aF-8784
aF-2978
aF3683
aF6047
aF4684
aF1215
aF-3296
aF-6690
aF-8252
aF-8116
aF-5407
aF209
aF5824
aF7689
aF5363
aF-1334
aF-6930
aF-7471
aF-6133
aF408
aF6287
aF6532
aF4162
aF-1674
aF-7694
aF-10031
aF-9098
aF-4283
aF2738
aF6182
aF5425
aF2414
aF-2258
aF-6816
aF-9587
aF-9222
aF-4419
aF3052
aF6909
aF5620
aF796
aF-5254
aF-8631
aF-8799
aF-6306
aF-1110
aF4097
aF6217
aF4709
aF-298
aF-6122
aF-8761
aF-7192
aF-1846
aF3348
aF4408
aF2090
aF-1709
aF-4798
aF-5128
aF-2495
aF364
aF1024
aF36
aF-727
aF-722
aF-1243
aF-3192
aF-5328
aF-4767
aF-430
aF3959
aF4541
aF1284
aF-3764
aF-7375
aF-7362
aF-3494
aF1759
aF4434
aF3012
aF-1028
aF-4621
aF-5026
aF-2517
aF-474
aF-1286
aF-3027
aF-2389
aF1126
aF3928
aF2737
aF-2018
aF-6963
aF-8695
aF-5799
aF792
aF5716
aF5768
aF1782
aF-4301
aF-8598
aF-8916
aF-5222
aF410
aF4138
aF4714
aF3402
aF485
aF-3686
aF-7146
aF-8066
aF-5706
aF-913
aF3550
aF4830
aF2935
aF-866
aF-4898
aF-7176
aF-6340
aF-2499
aF1295
aF2934
aF2396
aF453
aF-1669
aF-3951
aF-5422
aF-4424
aF-967
aF2134
aF2200
aF-615
aF-3959
aF-4978
aF-2717
aF995
aF2732
aF1376
aF-1949
aF-5221
aF-5938
aF-3445
aF214
aF2532
aF2567
aF659
aF-1924
aF-4130
aF-5508
aF-5878
aF-4081
aF276
aF4297
aF5300
aF2655
aF-3150
aF-8531
aF-9982
aF-6030
aF1823
aF6831
aF6095
aF1651
aF-4257
aF-8281
aF-8796
aF-5452
aF541
aF4813
aF5228
aF2723
aF-1308
aF-4727
aF-6450
aF-6843
aF-5437
aF-1800
aF2651
aF5479
aF4813
aF234
aF-5512
aF-8559
aF-7536
aF-3454
aF1136
aF3491
aF3315
aF1733
aF-840
aF-3689
aF-5507
aF-5589
aF-3993
aF-1053
aF2127
aF3659
aF2321
aF-1548
aF-5541
aF-6652
aF-3728
aF868
aF2824
aF1330
aF-1041
aF-2302
aF-2624
aF-3239
aF-3935
aF-3068
aF-98
aF2723
aF2803
aF178
aF-3223
aF-5366
aF-5589
aF-3926
aF-554
aF2866
aF3955
aF2170
aF-1608
aF-5328
aF-7024
aF-6335
aF-3450
aF1101
aF4838
aF5561
aF2667
aF-3337
aF-8550
aF-9736
aF-5809
aF1923
aF6693
aF5822
aF1328
aF-4416
aF-8131
aF-8182
aF-5113
aF-912
aF2137
aF3497
aF3431
aF1506
aF-2250
aF-6390
aF-8495
aF-6376
aF-176
aF5389
aF6293
aF2624
aF-3584
aF-8541
aF-9108
aF-4818
aF1712
aF4886
aF3206
aF-565
aF-3187
aF-2852
aF-1739
aF-2817
aF-5032
aF-5066
aF-1299
aF3404
aF4511
aF1222
aF-3875
aF-7121
aF-6418
aF-1800
aF3181
aF4145
aF457
aF-4800
aF-7217
aF-4435
aF1582
aF4550
aF1919
aF-3050
aF-6002
aF-4971
aF-1858
aF-270
aF-406
aF-434
aF107
aF589
aF64
aF-1658
aF-3850
aF-5292
aF-4681
aF-1274
aF2892
aF4197
aF1700
aF-2803
aF-6289
aF-6855
aF-4881
aF-1848
aF946
aF3212
aF3998
aF2225
aF-1908
aF-6120
aF-7803
aF-6160
aF-2378
aF1258
aF3675
aF4454
aF3062
aF-694
aF-5348
aF-8031
aF-7794
aF-4296
aF1486
aF5504
aF6300
aF3866
aF-2145
aF-7997
aF-9951
aF-7723
aF-719
aF5850
aF6725
aF4088
aF-778
aF-5888
aF-8534
aF-8720
aF-7044
aF-3283
aF1948
aF5912
aF6633
aF3831
aF-2625
aF-8162
aF-9361
aF-7197
aF296
aF6599
aF6990
aF3683
aF-3120
aF-8608
aF-9859
aF-7338
aF-931
aF4666
aF5843
aF4368
aF1298
aF-2832
aF-6653
aF-8683
aF-8003
aF-3333
aF2957
aF5819
aF4853
aF947
aF-4352
aF-7693
aF-7295
aF-4389
aF-840
aF1499
aF1980
aF1170
aF-149
aF-1244
aF-2183
aF-3033
aF-3434
aF-2900
aF-1621
aF-267
aF359
aF239
aF23
aF-748
aF-2069
aF-3506
aF-4059
aF-2859
aF-351
aF1810
aF2384
aF976
aF-2274
aF-5305
aF-5853
aF-3328
aF8
aF1686
aF1183
aF-170
aF-696
aF-696
aF-1447
aF-3231
aF-4475
aF-4236
aF-2405
aF454
aF2571
aF2574
aF248
aF-3352
aF-5579
aF-4128
aF58
aF2479
aF369
aF-3744
aF-5663
aF-3228
aF1590
aF3641
aF1563
aF-2074
aF-4832
aF-5280
aF-3083
aF220
aF2081
aF1370
aF-1530
aF-4118
aF-3797
aF-1268
aF237
aF-753
aF-1827
aF-550
aF1563
aF850
aF-3162
aF-6694
aF-5971
aF-871
aF3600
aF3606
aF609
aF-2668
aF-4744
aF-5305
aF-3938
aF-492
aF2793
aF2797
aF-764
aF-4856
aF-6035
aF-3442
aF513
aF2565
aF2331
aF1033
aF-1135
aF-4201
aF-6786
aF-6752
aF-3197
aF1931
aF4900
aF4205
aF1144
aF-3046
aF-6724
aF-7903
aF-5834
aF-806
aF3986
aF4994
aF2886
aF-970
aF-5234
aF-8192
aF-8379
aF-4479
aF2071
aF6037
aF5439
aF896
aF-5377
aF-9253
aF-9192
aF-5413
aF783
aF5141
aF5530
aF2945
aF-1699
aF-5954
aF-8108
aF-8131
aF-5462
aF-524
aF4406
aF6419
aF4483
aF-1183
aF-7294
aF-9669
aF-7426
aF-1348
aF4014
aF4946
aF3080
aF387
aF-2258
aF-4302
aF-5831
aF-6739
aF-5937
aF-1894
aF3894
aF6559
aF4088
aF-2367
aF-8379
aF-9934
aF-5573
aF2503
aF6770
aF5003
aF63
aF-4671
aF-6812
aF-6134
aF-3560
aF-861
aF484
aF984
aF1943
aF2413
aF568
aF-3741
aF-8096
aF-8372
aF-2760
aF4425
aF6454
aF2853
aF-3596
aF-8483
aF-8866
aF-4403
aF1694
aF4665
aF3744
aF683
aF-2675
aF-4592
aF-4760
aF-3882
aF-2840
aF-1636
aF792
aF3253
aF3184
aF-69
aF-4983
aF-7918
aF-6583
aF-1215
aF4224
aF5303
aF2034
aF-3213
aF-7146
aF-7630
aF-4543
aF257
aF3668
aF4538
aF2893
aF-1417
aF-6542
aF-9200
aF-7169
aF-421
aF5492
aF5813
aF1989
aF-3654
aF-7747
aF-8137
aF-5358
aF-815
aF3066
aF4451
aF3343
aF236
aF-3690
aF-6742
aF-8047
aF-6658
aF-1455
aF4403
aF6380
aF4272
aF-1751
aF-7539
aF-9589
aF-6800
aF931
aF6441
aF6428
aF2804
aF-3272
aF-7894
aF-8596
aF-5912
aF-626
aF3486
aF4242
aF3485
aF1686
aF-1881
aF-6438
aF-9415
aF-8337
aF-2183
aF4755
aF6804
aF4614
aF-773
aF-6819
aF-9859
aF-9253
aF-4726
aF2254
aF6295
aF5699
aF2336
aF-2371
aF-6394
aF-8209
aF-7740
aF-4975
aF-207
aF4079
aF5099
aF3061
aF-990
aF-5511
aF-8357
aF-8340
aF-4840
aF1204
aF5642
aF5663
aF2217
aF-3173
aF-7779
aF-9152
aF-7090
aF-1433
aF4478
aF6180
aF3824
aF-1687
aF-7050
aF-8568
aF-6423
aF-2293
aF1273
aF2833
aF3391
aF2967
aF477
aF-3610
aF-6914
aF-7485
aF-4840
aF28
aF4136
aF4887
aF1955
aF-3642
aF-8156
aF-7638
aF-1707
aF4090
aF3987
aF-472
aF-4647
aF-5212
aF-2369
aF237
aF163
aF-1146
aF-1868
aF-1853
aF-1397
aF-727
aF-293
aF-692
aF-1628
aF-2189
aF-1480
aF-130
aF-501
aF-3096
aF-5184
aF-3587
aF1409
aF4925
aF3641
aF-1472
aF-6928
aF-9226
aF-6681
aF-19
aF5403
aF5676
aF1852
aF-4014
aF-8074
aF-8192
aF-3996
aF1219
aF3399
aF3495
aF3101
aF1410
aF-2481
aF-6695
aF-8387
aF-6047
aF57
aF4950
aF5432
aF2802
aF-1731
aF-6096
aF-7943
aF-6860
aF-3067
aF1704
aF4115
aF3709
aF1376
aF-2480
aF-5837
aF-7242
aF-6223
aF-2269
aF2558
aF4879
aF3541
aF-227
aF-4469
aF-7158
aF-6977
aF-4210
aF-510
aF2377
aF3695
aF3686
aF1864
aF-2518
aF-7291
aF-8984
aF-6152
aF263
aF5021
aF4748
aF1060
aF-2888
aF-4923
aF-5130
aF-4525
aF-3296
aF-1041
aF1962
aF3697
aF2555
aF-964
aF-5162
aF-8112
aF-7608
aF-2706
aF3625
aF6528
aF4684
aF-859
aF-6703
aF-9126
aF-7288
aF-1726
aF3470
aF4854
aF3676
aF1251
aF-1840
aF-4631
aF-6561
aF-7036
aF-4893
aF-48
aF4682
aF5965
aF2655
aF-3779
aF-8873
aF-8809
aF-3019
aF4008
aF5763
aF2362
aF-2854
aF-6438
aF-6212
aF-3231
aF-678
aF-405
aF-878
aF101
aF2389
aF3366
aF556
aF-4830
aF-8570
aF-7577
aF-1222
aF4825
aF5179
aF1186
aF-3789
aF-6327
aF-5507
aF-2577
aF180
aF891
aF260
aF-521
aF-1187
aF-1680
aF-2100
aF-2473
aF-2397
aF-1379
aF267
aF1002
aF-263
aF-2440
aF-3198
aF-1767
aF-299
aF-808
aF-2621
aF-3260
aF-1448
aF1169
aF1854
aF274
aF-1801
aF-3364
aF-3826
aF-3075
aF-1373
aF-161
aF-84
aF-957
aF-1661
aF-283
aF1853
aF1212
aF-2748
aF-6502
aF-6141
aF-1141
aF3467
aF3162
aF-456
aF-3770
aF-4266
aF-2021
aF273
aF328
aF-1555
aF-3750
aF-4633
aF-2427
aF1894
aF3949
aF1510
aF-3489
aF-6932
aF-5883
aF-869
aF3167
aF2887
aF-40
aF-2598
aF-3515
aF-3174
aF-2505
aF-2178
aF-2002
aF-1138
aF711
aF2708
aF2847
aF-389
aF-5321
aF-8283
aF-6851
aF-730
aF4838
aF5583
aF2689
aF-2217
aF-6702
aF-8864
aF-8055
aF-3679
aF2507
aF5730
aF4901
aF806
aF-5092
aF-8915
aF-9266
aF-5324
aF1738
aF6126
aF5872
aF2617
aF-2521
aF-6881
aF-8861
aF-8218
aF-4327
aF1754
aF6209
aF6699
aF3102
aF-3602
aF-9013
aF-9815
aF-6180
aF1099
aF6203
aF5883
aF1968
aF-3961
aF-7998
aF-7810
aF-3804
aF781
aF2123
aF1288
aF1146
aF1697
aF633
aF-2947
aF-6962
aF-8411
aF-5292
aF1159
aF5875
aF5922
aF1977
aF-3852
aF-8211
aF-8644
aF-4728
aF1421
aF4484
aF3178
aF381
aF-1301
aF-1602
aF-2481
aF-4803
aF-6500
aF-5191
aF-271
aF4607
aF5367
aF2018
aF-3822
aF-8456
aF-8932
aF-4832
aF1535
aF5127
aF4331
aF1026
aF-3014
aF-6006
aF-6754
aF-5053
aF-1658
aF1601
aF3005
aF2553
aF686
aF-2268
aF-5116
aF-6249
aF-4271
aF280
aF3642
aF2694
aF-1653
aF-5420
aF-5385
aF-1772
aF1757
aF2256
aF322
aF-1842
aF-3261
aF-4390
aF-4289
aF-2000
aF1335
aF3294
aF2331
aF-1026
aF-4611
aF-6130
aF-5322
aF-2341
aF2036
aF4748
aF3463
aF-966
aF-5820
aF-7905
aF-5671
aF-851
aF2563
aF3603
aF3149
aF1126
aF-2596
aF-6303
aF-7986
aF-6258
aF-724
aF4294
aF5613
aF4160
aF-328
aF-6314
aF-9838
aF-8655
aF-2096
aF5218
aF6461
aF2648
aF-2648
aF-6464
aF-7234
aF-6350
aF-4552
aF-664
aF4097
aF6246
aF4309
aF-1405
aF-7464
aF-10108
aF-8362
aF-1763
aF5289
aF7250
aF4594
aF-1568
aF-7726
aF-9746
aF-7450
aF-2391
aF2065
aF3911
aF4434
aF3792
aF584
aF-4647
aF-8819
aF-9468
aF-5563
aF1717
aF6749
aF6910
aF2942
aF-4013
aF-9325
aF-10191
aF-6163
aF1568
aF6423
aF6040
aF3137
aF-1143
aF-5487
aF-8503
aF-9179
aF-6081
aF285
aF5488
aF6711
aF4231
aF-1081
aF-6820
aF-9874
aF-8824
aF-3024
aF4055
aF6280
aF4060
aF-365
aF-4640
aF-6934
aF-7680
aF-6900
aF-3532
aF1973
aF5678
aF5102
aF912
aF-4749
aF-8144
aF-7649
aF-4266
aF334
aF3492
aF3283
aF721
aF-2177
aF-3623
aF-3425
aF-3260
aF-3821
aF-3241
aF119
aF3627
aF3212
aF-1130
aF-6020
aF-7463
aF-3632
aF2150
aF4460
aF2078
aF-2536
aF-6119
aF-6044
aF-1898
aF2757
aF3463
aF-32
aF-4847
aF-6808
aF-3887
aF1294
aF3422
aF1281
aF-1797
aF-2586
aF-1116
aF-701
aF-2931
aF-5786
aF-5998
aF-1675
aF4052
aF6300
aF3948
aF-2106
aF-7760
aF-9154
aF-6345
aF190
aF5309
aF5462
aF2357
aF-3098
aF-7769
aF-8944
aF-6080
aF-129
aF4415
aF4869
aF2792
aF-665
aF-4533
aF-7430
aF-8326
aF-5622
aF598
aF5351
aF5854
aF2990
aF-2250
aF-7103
aF-9395
aF-8468
aF-3723
aF2919
aF6539
aF5691
aF1178
aF-5009
aF-8619
aF-7977
aF-3821
aF1534
aF4121
aF3252
aF510
aF-2596
aF-4304
aF-3924
aF-2695
aF-2494
aF-2978
aF-1813
aF1710
aF4442
aF3447
aF-1314
aF-6625
aF-8803
aF-6689
aF-317
aF5362
aF5969
aF2570
aF-3062
aF-7368
aF-7540
aF-4404
aF-1144
aF-40
aF323
aF1985
aF3599
aF2374
aF-2183
aF-7062
aF-8748
aF-5460
aF1387
aF5927
aF5383
aF866
aF-5292
aF-8954
aF-7863
aF-1905
aF4349
aF5357
aF2359
aF-1806
aF-4716
aF-5673
aF-6041
aF-5701
aF-3000
aF1639
aF4798
aF4204
aF392
aF-4418
aF-7466
aF-7388
aF-3731
aF1614
aF4332
aF3062
aF-746
aF-4331
aF-4971
aF-2682
aF-659
aF-427
aF-671
aF-157
aF17
aF-1366
aF-3319
aF-3807
aF-1934
aF523
aF981
aF-387
aF-1519
aF-1839
aF-2224
aF-2629
aF-2009
aF-398
aF517
aF-984
aF-3289
aF-3189
aF-151
aF1732
aF565
aF-2362
aF-3961
aF-2631
aF-463
aF-610
aF-2257
aF-1785
aF61
aF851
aF-332
aF-2514
aF-3616
aF-2873
aF-1572
aF-293
aF805
aF890
aF-471
aF-2762
aF-4383
aF-3459
aF-739
aF618
aF-497
aF-1835
aF-1632
aF-169
aF660
aF-695
aF-3261
aF-4149
aF-3086
aF-1177
aF575
aF1280
aF645
aF-800
aF-2370
aF-2934
aF-2181
aF-1720
aF-2505
aF-3422
aF-2297
aF1267
aF4064
aF3057
aF-1479
aF-6344
aF-8217
aF-5578
aF290
aF4452
aF4190
aF1108
aF-2774
aF-5364
aF-5985
aF-5279
aF-3318
aF-73
aF3395
aF5269
aF3749
aF-1437
aF-7265
aF-9823
aF-7499
aF-851
aF5068
aF6082
aF3343
aF-1490
aF-5909
aF-7640
aF-6574
aF-3666
aF-345
aF2389
aF4037
aF3699
aF536
aF-4410
aF-7902
aF-7691
aF-3095
aF3096
aF5641
aF3824
aF-549
aF-5215
aF-7689
aF-7013
aF-3482
aF1136
aF3710
aF3633
aF2171
aF-863
aF-5013
aF-7997
aF-8232
aF-4489
aF2034
aF5984
aF4957
aF209
aF-5604
aF-8646
aF-6928
aF-1028
aF3979
aF4053
aF757
aF-2765
aF-3944
aF-2888
aF-2024
aF-2890
aF-3912
aF-2180
aF2135
aF4725
aF2515
aF-2526
aF-7056
aF-8176
aF-4661
aF1210
aF4683
aF3896
aF-18
aF-4592
aF-6359
aF-3675
aF543
aF1452
aF-1473
aF-4163
aF-3009
aF1341
aF3828
aF1257
aF-4113
aF-7460
aF-6082
aF-864
aF3724
aF4189
aF1123
aF-3343
aF-6398
aF-5931
aF-2165
aF1437
aF1672
aF-479
aF-1754
aF-741
aF740
aF83
aF-2796
aF-5331
aF-4949
aF-1993
aF752
aF1751
aF1635
aF673
aF-1412
aF-3825
aF-4674
aF-2920
aF-407
aF214
aF-1172
aF-2196
aF-1188
aF850
aF1756
aF624
aF-1812
aF-4556
aF-6658
aF-6680
aF-2697
aF3489
aF6471
aF4431
aF-1812
aF-7930
aF-9824
aF-6863
aF-96
aF5029
aF5462
aF3594
aF270
aF-3994
aF-7463
aF-9177
aF-8085
aF-3265
aF3315
aF7047
aF6555
aF2321
aF-4541
aF-8053
aF-8481
aF-4942
aF3538
aF7592
aF6569
aF1594
aF-5942
aF-9915
aF-9685
aF-6050
aF592
aF5178
aF5827
aF4617
aF1486
aF-3332
aF-7480
aF-9106
aF-7304
aF-1154
aF4547
aF6007
aF4125
aF-868
aF-6457
aF-9094
aF-7852
aF-3303
aF2147
aF4423
aF2828
aF-161
aF-2522
aF-3511
aF-4131
aF-4868
aF-4321
aF-1224
aF2753
aF4001
aF1455
aF-2759
aF-5499
aF-5374
aF-3597
aF-1984
aF-831
aF627
aF2294
aF2754
aF1121
aF-2088
aF-5344
aF-6726
aF-5403
aF-2178
aF1714
aF3598
aF2267
aF-934
aF-4076
aF-4676
aF-3055
aF-1130
aF-50
aF-349
aF-1028
aF-1205
aF-1408
aF-2022
aF-2013
aF-917
aF530
aF1331
aF49
aF-3076
aF-5376
aF-5344
aF-2418
aF1854
aF3796
aF2176
aF-1213
aF-4728
aF-6243
aF-4421
aF-515
aF2302
aF2217
aF143
aF-2132
aF-3144
aF-3079
aF-3228
aF-3192
aF-1491
aF1667
aF3853
aF2587
aF-1884
aF-6266
aF-7424
aF-4748
aF-71
aF3154
aF3305
aF1374
aF-1584
aF-4237
aF-4994
aF-3547
aF-1083
aF602
aF589
aF5
aF-332
aF-1302
aF-3191
aF-4142
aF-3105
aF-423
aF1878
aF1664
aF-496
aF-2529
aF-3428
aF-3320
aF-2440
aF-1325
aF-164
aF530
aF-149
aF-1275
aF-1585
aF-1253
aF-1642
aF-2506
aF-2695
aF-1679
aF-143
aF107
aF-1282
aF-2296
aF-1406
aF474
aF1037
aF-675
aF-3091
aF-4202
aF-3416
aF-1589
aF56
aF739
aF183
aF-1197
aF-2054
aF-1312
aF-77
aF-668
aF-3168
aF-4933
aF-3351
aF984
aF3530
aF1708
aF-2337
aF-4929
aF-4147
aF-1351
aF353
aF-154
aF-1454
aF-2131
aF-1573
aF-47
aF1156
aF408
aF-2861
aF-6034
aF-5562
aF-725
aF4165
aF4136
aF-215
aF-4931
aF-6426
aF-4050
aF-820
aF99
aF-921
aF-1185
aF578
aF2706
aF2592
aF-822
aF-5873
aF-9034
aF-7405
aF-279
aF6057
aF6325
aF1164
aF-5882
aF-9292
aF-6915
aF-603
aF3681
aF3042
aF474
aF-1348
aF-2075
aF-2215
aF-2294
aF-2696
aF-3443
aF-3581
aF-1578
aF2313
aF4520
aF2199
aF-3535
aF-8103
aF-7663
aF-1939
aF3732
aF4135
aF649
aF-2964
aF-4446
aF-3478
aF-1622
aF-614
aF-405
aF-817
aF-2059
aF-2903
aF-1654
aF654
aF1655
aF300
aF-2356
aF-4020
aF-3876
aF-2229
aF-360
aF628
aF874
aF-245
aF-2358
aF-4097
aF-4026
aF-1670
aF1029
aF1582
aF31
aF-1657
aF-1862
aF-911
aF-898
aF-2911
aF-4989
aF-4483
aF-754
aF3581
aF4755
aF1805
aF-3481
aF-7357
aF-7365
aF-2737
aF3069
aF4549
aF1527
aF-3090
aF-5601
aF-3852
aF203
aF2022
aF-316
aF-3799
aF-4880
aF-2502
aF1234
aF2400
aF56
aF-3230
aF-4585
aF-2912
aF278
aF1988
aF874
aF-1696
aF-3582
aF-3899
aF-2827
aF-1414
aF-785
aF-688
aF72
aF1515
aF1864
aF-292
aF-3987
aF-6593
aF-6172
aF-2355
aF2263
aF4166
aF3421
aF733
aF-3361
aF-7088
aF-8536
aF-6334
aF-524
aF4725
aF5682
aF3477
aF-1160
aF-6376
aF-9269
aF-8984
aF-3931
aF3632
aF6949
aF5724
aF799
aF-5622
aF-9015
aF-9320
aF-6064
aF420
aF5356
aF6825
aF5501
aF858
aF-5475
aF-9753
aF-10409
aF-7055
aF582
aF6785
aF7201
aF3098
aF-4034
aF-9245
aF-9530
aF-5612
aF355
aF4149
aF4639
aF3536
aF1183
aF-2483
aF-6320
aF-8100
aF-6492
aF-2212
aF2307
aF4773
aF4374
aF1156
aF-3512
aF-7033
aF-7052
aF-3436
aF572
aF1678
aF563
aF-251
aF160
aF374
aF-1149
aF-3563
aF-5006
aF-4568
aF-2214
aF663
aF2500
aF2495
aF148
aF-3267
aF-5240
aF-4411
aF-1710
aF465
aF290
aF-730
aF-404
aF567
aF141
aF-2018
aF-4222
aF-4567
aF-2844
aF-575
aF911
aF1327
aF896
aF-484
aF-1952
aF-2982
aF-3423
aF-2439
aF-1918
aF-2092
aF-1080
aF1016
aF2172
aF1307
aF-1114
aF-3601
aF-4734
aF-4455
aF-3450
aF-1448
aF1537
aF3719
aF3670
aF561
aF-4626
aF-8373
aF-8449
aF-4615
aF1174
aF4988
aF5058
aF2460
aF-1726
aF-5750
as.