(dp1
S'peak2peak'
p2
F0.0029629485877900488
sS'samples'
p3
(lp4
F-3341
aF-3022
aF-572
aF1002
aF-179
aF-2039
aF-2205
aF-576
aF345
aF-1326
aF-3999
aF-4613
aF-1773
aF1878
aF2678
aF666
aF-1941
aF-3640
aF-3743
aF-2682
aF-1313
aF-42
aF595
aF-122
aF-1584
aF-2218
aF-1708
aF-1357
aF-1897
aF-2213
aF-1111
aF815
aF1193
aF-1047
aF-3667
aF-3962
aF-1442
aF1271
aF1371
aF-485
aF-2259
aF-3010
aF-2984
aF-2572
aF-1608
aF-41
aF1154
aF759
aF-1122
aF-2885
aF-2970
aF-1598
aF-511
aF-745
aF-1599
aF-1869
aF-1077
aF181
aF298
aF-1192
aF-3227
aF-4187
aF-2513
aF759
aF2590
aF1657
aF-1163
aF-3781
aF-4546
aF-3158
aF-787
aF634
aF555
aF-59
aF-636
aF-1505
aF-2857
aF-3982
aF-3493
aF-832
aF1905
aF2192
aF212
aF-2397
aF-3971
aF-3584
aF-2076
aF-816
aF-163
aF292
aF495
aF144
aF-805
aF-2340
aF-3922
aF-4429
aF-2953
aF477
aF3530
aF3244
aF-366
aF-4416
aF-6064
aF-4356
aF-916
aF986
aF794
aF329
aF-198
aF-1520
aF-3174
aF-3765
aF-2207
aF315
aF1200
aF42
aF-1267
aF-1728
aF-1730
aF-2151
aF-2879
aF-2735
aF-1297
aF423
aF1233
aF640
aF-970
aF-2890
aF-4376
aF-4143
aF-1109
aF2419
aF2691
aF-553
aF-4376
aF-5461
aF-2365
aF1762
aF2294
aF-521
aF-3384
aF-4079
aF-2498
aF-453
aF478
aF615
aF374
aF-792
aF-2693
aF-3931
aF-3245
aF-588
aF1813
aF1168
aF-1696
aF-3974
aF-4293
aF-2513
aF158
aF1747
aF1653
aF112
aF-2373
aF-4623
aF-4894
aF-2481
aF784
aF2090
aF885
aF-1335
aF-3127
aF-3645
aF-2890
aF-1348
aF418
aF1315
aF554
aF-1401
aF-3272
aF-3529
aF-1878
aF-33
aF176
aF-794
aF-1348
aF-769
aF-162
aF-1073
aF-3149
aF-4179
aF-2279
aF1262
aF2586
aF574
aF-2490
aF-4003
aF-2539
aF161
aF476
aF-1292
aF-2724
aF-2236
aF-263
aF768
aF-819
aF-3422
aF-4236
aF-2063
aF1525
aF3122
aF1164
aF-2652
aF-5447
aF-5356
aF-2190
aF1197
aF1898
aF770
aF-465
aF-1327
aF-2065
aF-2869
aF-3521
aF-3288
aF-1599
aF881
aF2638
aF2188
aF-638
aF-4153
aF-5904
aF-4219
aF-247
aF1989
aF915
aF-1359
aF-2412
aF-1836
aF-1150
aF-1211
aF-1441
aF-1285
aF-857
aF-945
aF-1173
aF-653
aF-52
aF-526
aF-2404
aF-4415
aF-4445
aF-1429
aF2447
aF3495
aF1134
aF-2699
aF-5399
aF-5584
aF-2753
aF1209
aF2987
aF2249
aF20
aF-2597
aF-4479
aF-5007
aF-3793
aF-1185
aF1324
aF2329
aF1552
aF-712
aF-3481
aF-5079
aF-4288
aF-1634
aF1175
aF1973
aF255
aF-1788
aF-2565
aF-2174
aF-1795
aF-2410
aF-2783
aF-1308
aF972
aF1475
aF-223
aF-2271
aF-2888
aF-2137
aF-1145
aF-652
aF-468
aF-456
aF-1036
aF-2127
aF-2869
aF-2344
aF-893
aF106
aF240
aF56
aF-199
aF-1133
aF-2816
aF-4077
aF-3390
aF-397
aF2018
aF1593
aF-197
aF-1976
aF-3277
aF-4041
aF-3717
aF-1281
aF2218
aF3354
aF470
aF-4169
aF-6605
aF-4624
aF801
aF4207
aF2903
aF-791
aF-4199
aF-6010
aF-5516
aF-2574
aF1109
aF3101
aF2366
aF-302
aF-2894
aF-4049
aF-3620
aF-2337
aF-985
aF97
aF626
aF33
aF-1576
aF-2586
aF-1785
aF-373
aF-681
aF-2697
aF-3685
aF-1541
aF2201
aF3298
aF412
aF-3858
aF-6366
aF-5146
aF-704
aF2731
aF2798
aF926
aF-1616
aF-3998
aF-5256
aF-4576
aF-1907
aF1325
aF2691
aF1260
aF-1290
aF-3241
aF-3767
aF-2704
aF-1003
aF-114
aF-317
aF-983
aF-1320
aF-1165
aF-790
aF-965
aF-2113
aF-3064
aF-2361
aF37
aF2409
aF2408
aF-484
aF-4124
aF-5862
aF-4280
aF-814
aF999
aF648
aF276
aF557
aF49
aF-2160
aF-4742
aF-5494
aF-3059
aF977
aF3020
aF2250
aF-163
aF-2867
aF-4933
aF-5336
aF-3130
aF499
aF2603
aF1804
aF-851
aF-3328
aF-4302
aF-3519
aF-1273
aF1301
aF2356
aF1071
aF-1943
aF-4668
aF-5043
aF-2660
aF604
aF2124
aF1263
aF-923
aF-3267
aF-4638
aF-4015
aF-918
aF2505
aF3182
aF793
aF-2954
aF-6077
aF-6559
aF-3032
aF2277
aF4691
aF2930
aF-1644
aF-5577
aF-6228
aF-2515
aF2231
aF2933
aF352
aF-1806
aF-1636
aF-619
aF-1370
aF-3675
aF-4852
aF-2767
aF1468
aF3485
aF1740
aF-1896
aF-4777
aF-5037
aF-2656
aF403
aF1200
aF-10
aF-991
aF-749
aF-113
aF-903
aF-3010
aF-4406
aF-3167
aF194
aF2477
aF1727
aF-1058
aF-3731
aF-4706
aF-3316
aF-381
aF1947
aF1987
aF-81
aF-2756
aF-4491
aF-4247
aF-2428
aF-387
aF1124
aF1754
aF629
aF-2063
aF-4445
aF-4603
aF-1824
aF1491
aF1965
aF-72
aF-2243
aF-3197
aF-2986
aF-2322
aF-1468
aF195
aF2024
aF1685
aF-1406
aF-4843
aF-5997
aF-3699
aF695
aF3216
aF2576
aF35
aF-3077
aF-5040
aF-4428
aF-1410
aF1240
aF1141
aF-918
aF-2420
aF-1789
aF-366
aF-705
aF-2331
aF-2624
aF-817
aF978
aF427
aF-1726
aF-2664
aF-1480
aF-263
aF-1040
aF-2963
aF-3454
aF-1112
aF1881
aF2264
aF152
aF-2849
aF-5108
aF-5420
aF-2985
aF1104
aF3601
aF2715
aF-619
aF-3978
aF-5093
aF-3884
aF-2087
aF-946
aF-68
aF1172
aF1692
aF454
aF-2058
aF-4379
aF-4847
aF-3025
aF-423
aF1379
aF2119
aF1769
aF-76
aF-3196
aF-6295
aF-7242
aF-3775
aF2255
aF5523
aF3817
aF-908
aF-5124
aF-6473
aF-4693
aF-1130
aF1318
aF1843
aF1401
aF94
aF-2067
aF-4100
aF-4639
aF-3084
aF-353
aF1748
aF2333
aF1124
aF-1855
aF-5129
aF-6241
aF-3769
aF1163
aF3924
aF2108
aF-1475
aF-4034
aF-4791
aF-4312
aF-3177
aF-997
aF2304
aF4097
aF1927
aF-2924
aF-6603
aF-6382
aF-1509
aF3569
aF4162
aF1144
aF-2976
aF-5954
aF-6364
aF-3713
aF444
aF3250
aF3546
aF1531
aF-1987
aF-5290
aF-6750
aF-5279
aF-787
aF3363
aF3739
aF952
aF-2914
aF-5186
aF-4488
aF-2416
aF-1199
aF-976
aF-481
aF564
aF1506
aF1122
aF-1314
aF-4660
aF-6450
aF-4662
aF514
aF4480
aF3559
aF-744
aF-5052
aF-6480
aF-3948
aF-192
aF1393
aF1261
aF1091
aF481
aF-1386
aF-3855
aF-5092
aF-3181
aF664
aF2380
aF715
aF-1862
aF-3164
aF-2882
aF-2019
aF-1574
aF-1201
aF-228
aF646
aF245
aF-1159
aF-2343
aF-2517
aF-1662
aF-814
aF-1004
aF-1980
aF-2420
aF-1307
aF666
aF1704
aF505
aF-2298
aF-4616
aF-4627
aF-2176
aF672
aF1943
aF1785
aF687
aF-1341
aF-3903
aF-5616
aF-4860
aF-1602
aF1767
aF3022
aF1897
aF-882
aF-4226
aF-6385
aF-5256
aF-77
aF4514
aF4132
aF-515
aF-5233
aF-6534
aF-3284
aF1868
aF3165
aF859
aF-1524
aF-2449
aF-2529
aF-2852
aF-2768
aF-1044
aF1210
aF1617
aF-295
aF-2847
aF-4248
aF-3486
aF-1241
aF918
aF2038
aF1120
aF-1708
aF-4558
aF-5471
aF-3321
aF349
aF2297
aF2174
aF809
aF-1423
aF-3627
aF-5281
aF-5281
aF-2455
aF1713
aF3855
aF2756
aF-759
aF-4675
aF-6759
aF-5772
aF-2167
aF1911
aF3942
aF3485
aF883
aF-3139
aF-6634
aF-7827
aF-4859
aF1482
aF5375
aF4600
aF563
aF-4370
aF-7286
aF-7065
aF-3379
aF1502
aF3837
aF3022
aF473
aF-2457
aF-4616
aF-5612
aF-5047
aF-2224
aF1991
aF4590
aF3243
aF-1518
aF-5984
aF-6963
aF-4093
aF1200
aF3847
aF2719
aF640
aF-1741
aF-4326
aF-6132
aF-5798
aF-2034
aF2985
aF3588
aF432
aF-3277
aF-5192
aF-4062
aF-845
aF1491
aF1859
aF605
aF-1948
aF-4308
aF-4559
aF-1918
aF1174
aF1386
aF-705
aF-2278
aF-1552
aF-288
aF-887
aF-2509
aF-2977
aF-1332
aF325
aF-8
aF-1093
aF-1285
aF-303
aF-88
aF-2273
aF-4697
aF-4463
aF-891
aF2803
aF2679
aF-828
aF-4264
aF-5028
aF-2810
aF398
aF1681
aF490
aF-1591
aF-2818
aF-2348
aF-1190
aF-717
aF-1274
aF-2065
aF-1886
aF-621
aF621
aF693
aF-541
aF-2311
aF-3573
aF-3566
aF-2095
aF96
aF1701
aF1863
aF372
aF-2250
aF-5017
aF-6405
aF-4538
aF520
aF4573
aF4386
aF557
aF-4246
aF-6976
aF-6090
aF-2213
aF1324
aF2772
aF3021
aF1929
aF-1414
aF-5748
aF-7858
aF-5736
aF247
aF4911
aF4530
aF723
aF-3937
aF-6863
aF-6695
aF-3021
aF1863
aF3954
aF2778
aF-3
aF-2979
aF-5061
aF-5902
aF-5058
aF-1592
aF2923
aF5005
aF3437
aF-1148
aF-5764
aF-7742
aF-5771
aF-127
aF4333
aF4546
aF1400
aF-3420
aF-7084
aF-6968
aF-2223
aF2912
aF3858
aF1676
aF-966
aF-3091
aF-4870
aF-6106
aF-5032
aF-474
aF4227
aF4828
aF1344
aF-3451
aF-6749
aF-7321
aF-4910
aF-497
aF3627
aF5289
aF3432
aF-1533
aF-6287
aF-7785
aF-4824
aF1606
aF5093
aF3664
aF42
aF-3616
aF-5891
aF-6120
aF-4261
aF-732
aF2723
aF3796
aF2040
aF-1383
aF-4672
aF-6171
aF-5041
aF-1546
aF1913
aF3008
aF1377
aF-1882
aF-4716
aF-4899
aF-2201
aF582
aF953
aF-545
aF-1591
aF-1062
aF-369
aF-1390
aF-3367
aF-3709
aF-1343
aF1658
aF1993
aF-592
aF-3400
aF-4200
aF-2756
aF-527
aF702
aF410
aF-952
aF-2596
aF-3079
aF-1466
aF1186
aF2082
aF-87
aF-3421
aF-5212
aF-4131
aF-1036
aF1166
aF1481
aF1032
aF-3
aF-1985
aF-4202
aF-4885
aF-2337
aF1653
aF2643
aF203
aF-2902
aF-4165
aF-2683
aF-479
aF265
aF103
aF197
aF-72
aF-1741
aF-3752
aF-4016
aF-1557
aF1462
aF1985
aF202
aF-1893
aF-2983
aF-3011
aF-2608
aF-1659
aF-204
aF667
aF45
aF-1540
aF-2686
aF-2692
aF-1986
aF-1086
aF22
aF1304
aF1648
aF-274
aF-3818
aF-6479
aF-5490
aF-366
aF4053
aF4343
aF1155
aF-3436
aF-6829
aF-7506
aF-4179
aF2011
aF5647
aF4372
aF40
aF-4921
aF-7162
aF-6440
aF-2685
aF2770
aF5289
aF4411
aF520
aF-4708
aF-8221
aF-7913
aF-3177
aF2510
aF4878
aF4037
aF1238
aF-2800
aF-6114
aF-7440
aF-6118
aF-1543
aF3809
aF5280
aF2882
aF-1886
aF-6363
aF-7827
aF-5563
aF-176
aF4062
aF4752
aF3193
aF-455
aF-5118
aF-8370
aF-8139
aF-2888
aF3858
aF5851
aF3215
aF-1583
aF-5662
aF-7017
aF-5277
aF-774
aF3232
aF3891
aF1604
aF-2182
aF-5247
aF-5540
aF-3286
aF-365
aF1265
aF1158
aF52
aF-1474
aF-2887
aF-3533
aF-2831
aF-1108
aF378
aF652
aF160
aF-630
aF-1735
aF-2975
aF-3464
aF-2370
aF-326
aF991
aF442
aF-1284
aF-2686
aF-2796
aF-1690
aF-171
aF774
aF286
aF-1637
aF-3634
aF-3548
aF-723
aF1900
aF1118
aF-2221
aF-4655
aF-3726
aF311
aF2675
aF1097
aF-1936
aF-3683
aF-2872
aF-1113
aF-756
aF-1467
aF-1308
aF178
aF1104
aF-115
aF-2722
aF-4562
aF-4035
aF-1397
aF1286
aF2379
aF1669
aF-550
aF-3648
aF-5998
aF-5313
aF-1283
aF2719
aF3488
aF1308
aF-1783
aF-4060
aF-5142
aF-5411
aF-3917
aF329
aF4345
aF4643
aF1008
aF-3881
aF-6113
aF-5246
aF-1043
aF3189
aF3857
aF1973
aF-1251
aF-4663
aF-6913
aF-6375
aF-2063
aF3136
aF4470
aF2001
aF-2108
aF-5207
aF-6028
aF-4196
aF-452
aF2766
aF4014
aF2897
aF-648
aF-4787
aF-7144
aF-6408
aF-2033
aF2842
aF4715
aF3698
aF266
aF-4126
aF-7022
aF-6902
aF-2037
aF3873
aF5372
aF2368
aF-2645
aF-6541
aF-7477
aF-5393
aF-1419
aF2711
aF4739
aF3802
aF15
aF-4567
aF-7403
aF-7284
aF-1942
aF4607
aF6590
aF4116
aF-1546
aF-7190
aF-9095
aF-6270
aF412
aF5258
aF4613
aF993
aF-2915
aF-5247
aF-5757
aF-4695
aF-2190
aF1042
aF3135
aF2578
aF-214
aF-3472
aF-5480
aF-5339
aF-2967
aF238
aF2427
aF2935
aF1477
aF-1542
aF-4616
aF-6298
aF-5253
aF-1420
aF2632
aF4057
aF2181
aF-1890
aF-5678
aF-7024
aF-4479
aF836
aF3892
aF2717
aF-702
aF-3794
aF-4639
aF-2995
aF-719
aF267
aF66
aF-625
aF-1707
aF-2851
aF-3057
aF-1352
aF1256
aF2213
aF310
aF-3035
aF-5177
aF-4245
aF-945
aF1544
aF1376
aF-231
aF-1925
aF-3228
aF-3469
aF-2187
aF-89
aF1198
aF436
aF-1661
aF-3170
aF-3064
aF-1785
aF-502
aF128
aF617
aF765
aF-105
aF-2356
aF-5102
aF-5523
aF-2395
aF1842
aF3256
aF1068
aF-2256
aF-4414
aF-4564
aF-2892
aF-333
aF1758
aF2195
aF745
aF-2234
aF-5195
aF-6097
aF-3199
aF1945
aF4604
aF3255
aF-1063
aF-5546
aF-7570
aF-5459
aF235
aF4308
aF4168
aF1235
aF-2865
aF-6164
aF-7217
aF-5279
aF-620
aF3900
aF5135
aF2681
aF-2152
aF-6787
aF-8686
aF-6128
aF-203
aF4596
aF5665
aF3278
aF-1458
aF-5821
aF-7548
aF-6539
aF-1827
aF3513
aF4998
aF3632
aF287
aF-3927
aF-7235
aF-8346
aF-5084
aF2060
aF6530
aF5461
aF82
aF-5869
aF-8128
aF-6864
aF-1403
aF4496
aF5915
aF4254
aF207
aF-4982
aF-8388
aF-8491
aF-4078
aF2926
aF6108
aF4557
aF458
aF-4350
aF-7367
aF-7927
aF-5867
aF-1208
aF4079
aF5528
aF2024
aF-3493
aF-7282
aF-7228
aF-2355
aF3485
aF4828
aF2146
aF-1945
aF-5228
aF-6287
aF-4551
aF-851
aF2165
aF2180
aF-342
aF-2977
aF-3601
aF-1828
aF209
aF16
aF-1598
aF-2434
aF-1886
aF-868
aF-528
aF-791
aF-751
aF-599
aF-1269
aF-2707
aF-3206
aF-2056
aF24
aF1362
aF600
aF-1435
aF-3015
aF-3201
aF-2092
aF-726
aF-125
aF-279
aF-837
aF-1367
aF-1599
aF-1765
aF-1904
aF-1863
aF-1715
aF-1240
aF-211
aF496
aF264
aF-854
aF-2406
aF-3603
aF-3561
aF-1845
aF748
aF2302
aF1495
aF-1535
aF-4944
aF-6140
aF-3511
aF1793
aF4639
aF3143
aF-831
aF-4913
aF-6969
aF-6137
aF-2552
aF1888
aF4317
aF3665
aF120
aF-4404
aF-7061
aF-6424
aF-1731
aF3362
aF4643
aF2661
aF-1587
aF-5778
aF-7758
aF-5117
aF1516
aF5568
aF4336
aF-172
aF-4731
aF-6738
aF-6125
aF-3302
aF770
aF3713
aF4202
aF1540
aF-3005
aF-6289
aF-6540
aF-2921
aF1984
aF3577
aF2189
aF-720
aF-4018
aF-6258
aF-6144
aF-2995
aF1610
aF4631
aF3939
aF137
aF-4309
aF-6846
aF-6977
aF-3035
aF3447
aF6492
aF4661
aF-1089
aF-6960
aF-8957
aF-5958
aF915
aF5214
aF4489
aF1215
aF-2503
aF-5130
aF-6351
aF-5767
aF-2948
aF1249
aF3733
aF2881
aF-387
aF-4065
aF-5828
aF-5058
aF-2584
aF-19
aF1635
aF2384
aF1933
aF-84
aF-3376
aF-6399
aF-6852
aF-3310
aF2282
aF5336
aF3786
aF-1277
aF-6480
aF-8518
aF-5676
aF1218
aF5681
aF4428
aF-208
aF-4819
aF-6711
aF-5230
aF-1726
aF1180
aF2120
aF1675
aF-64
aF-2858
aF-5275
aF-5124
aF-1470
aF2519
aF2886
aF-236
aF-4061
aF-5471
aF-2904
aF982
aF2232
aF456
aF-2100
aF-3523
aF-3284
aF-2082
aF-1088
aF-794
aF-426
aF422
aF873
aF-449
aF-3280
aF-5280
aF-4077
aF600
aF4170
aF2571
aF-2576
aF-6730
aF-6582
aF-1450
aF3654
aF3627
aF260
aF-2966
aF-4473
aF-4407
aF-3214
aF-1136
aF912
aF2174
aF1761
aF-419
aF-3249
aF-5260
aF-5226
aF-2463
aF1436
aF3499
aF2108
aF-1815
aF-5330
aF-5753
aF-2450
aF1603
aF2357
aF250
aF-1822
aF-2470
aF-2400
aF-3033
aF-3859
aF-2759
aF768
aF3704
aF2772
aF-1526
aF-5721
aF-6885
aF-4520
aF-362
aF2678
aF3652
aF3041
aF292
aF-4113
aF-7423
aF-7632
aF-2549
aF4340
aF6277
aF3483
aF-2213
aF-6354
aF-7401
aF-4846
aF1829
aF5802
aF5090
aF932
aF-4635
aF-7881
aF-7799
aF-4058
aF1360
aF4468
aF4775
aF2760
aF-1686
aF-6243
aF-8764
aF-6757
aF549
aF6169
aF6306
aF2561
aF-3309
aF-7757
aF-8786
aF-6342
aF-705
aF4492
aF5139
aF2337
aF-2043
aF-5807
aF-7083
aF-5106
aF93
aF4411
aF4558
aF1125
aF-3746
aF-7291
aF-6703
aF-2338
aF2076
aF3000
aF909
aF-1503
aF-2825
aF-2944
aF-2361
aF-1583
aF-687
aF-7
aF-151
aF-1193
aF-2207
aF-1774
aF-274
aF172
aF-1321
aF-3419
aF-4018
aF-2003
aF1100
aF2374
aF773
aF-2171
aF-4343
aF-4007
aF-1326
aF1017
aF1114
aF-786
aF-2979
aF-3352
aF-1601
aF414
aF343
aF-1497
aF-3111
aF-3166
aF-1094
aF1475
aF1916
aF314
aF-1988
aF-4118
aF-5221
aF-4285
aF-1114
aF2494
aF4011
aF2377
aF-1764
aF-5918
aF-7587
aF-5183
aF728
aF4856
aF4382
aF667
aF-4141
aF-7237
aF-7145
aF-2801
aF3142
aF5366
aF3630
aF-849
aF-5343
aF-7049
aF-6084
aF-619
aF5030
aF5870
aF2753
aF-3198
aF-7490
aF-7961
aF-3178
aF3872
aF5985
aF3292
aF-1136
aF-5042
aF-6919
aF-6493
aF-3122
aF2153
aF5135
aF4016
aF-391
aF-5035
aF-7158
aF-5687
aF-509
aF3680
aF4192
aF2215
aF-1373
aF-5030
aF-7057
aF-5865
aF-1296
aF3147
aF4308
aF2308
aF-1518
aF-5230
aF-7003
aF-5225
aF334
aF4739
aF4196
aF-337
aF-5501
aF-7679
aF-5181
aF-12
aF2949
aF2412
aF781
aF-629
aF-2127
aF-3967
aF-5238
aF-4254
aF-448
aF2917
aF2972
aF417
aF-3038
aF-5338
aF-5351
aF-3249
aF-374
aF1844
aF2862
aF2309
aF-116
aF-3738
aF-6778
aF-7283
aF-3393
aF2969
aF6238
aF4309
aF-1363
aF-6351
aF-7676
aF-4618
aF2320
aF5679
aF3614
aF-1111
aF-5234
aF-6242
aF-4184
aF-1679
aF-116
aF1855
aF3518
aF2262
aF-2151
aF-6654
aF-7331
aF-2520
aF3156
aF4042
aF945
aF-2726
aF-4638
aF-3910
aF-1565
aF373
aF947
aF389
aF-1269
aF-3235
aF-3649
aF-2426
aF-786
aF478
aF1194
aF1180
aF-172
aF-3030
aF-5624
aF-5055
aF-457
aF3687
aF3102
aF-1092
aF-5008
aF-5672
aF-2514
aF1431
aF2187
aF384
aF-1483
aF-2601
aF-3169
aF-3236
aF-2042
aF349
aF2224
aF1796
aF-944
aF-4007
aF-5439
aF-3964
aF-144
aF2633
aF1974
aF-1118
aF-3832
aF-3902
aF-1199
aF1323
aF227
aF-2899
aF-4147
aF-1791
aF2253
aF2982
aF-792
aF-5117
aF-6622
aF-3757
aF1994
aF5004
aF3407
aF-1004
aF-5479
aF-7527
aF-6155
aF-1127
aF3914
aF4920
aF2800
aF-1512
aF-4781
aF-6301
aF-5109
aF1369
aF6058
aF5834
aF1221
aF-4525
aF-6991
aF-6616
aF-543
aF5917
aF6412
aF2828
aF-2624
aF-6864
aF-8408
aF-7049
aF-2760
aF2719
aF5971
aF5129
aF331
aF-5112
aF-7268
aF-5850
aF237
aF5105
aF4693
aF1180
aF-3283
aF-6131
aF-6869
aF-5219
aF-1311
aF2656
aF4418
aF3347
aF-294
aF-4518
aF-6995
aF-6434
aF-1803
aF3446
aF4638
aF1737
aF-2971
aF-6123
aF-5302
aF-1545
aF1122
aF816
aF-731
aF-1431
aF-1101
aF-1135
aF-1919
aF-2235
aF-1336
aF-263
aF-45
aF-521
aF-1445
aF-1968
aF-1693
aF-1513
aF-1493
aF-1339
aF-867
aF-140
aF128
aF-616
aF-2104
aF-3214
aF-2439
aF-48
aF1640
aF751
aF-1977
aF-4045
aF-3610
aF-841
aF1539
aF1400
aF-808
aF-3085
aF-3658
aF-2422
aF-752
aF123
aF223
aF455
aF607
aF-729
aF-3509
aF-5828
aF-5244
aF-600
aF3985
aF4284
aF717
aF-4074
aF-7221
aF-6691
aF-2246
aF2843
aF4832
aF3159
aF-1125
aF-5529
aF-7451
aF-5465
aF346
aF4938
aF4851
aF1185
aF-3970
aF-7689
aF-7958
aF-3756
aF2976
aF6089
aF3970
aF-1383
aF-6431
aF-7826
aF-4712
aF55
aF2290
aF2269
aF1678
aF238
aF-2713
aF-5848
aF-6214
aF-1780
aF3799
aF4797
aF1134
aF-3781
aF-6568
aF-5864
aF-2248
aF1180
aF2769
aF2997
aF1272
aF-2411
aF-5832
aF-6706
aF-4276
aF324
aF3613
aF3829
aF1776
aF-2021
aF-5884
aF-7398
aF-4891
aF799
aF4410
aF3163
aF-513
aF-3769
aF-5102
aF-4611
aF-3355
aF-1627
aF1160
aF3694
aF3577
aF213
aF-4364
aF-7250
aF-6669
aF-1595
aF3819
aF4839
aF2218
aF-2033
aF-5387
aF-6542
aF-4734
aF-8
aF3882
aF4576
aF2034
aF-3026
aF-7213
aF-7847
aF-3511
aF3444
aF5847
aF3016
aF-2083
aF-5639
aF-6343
aF-3180
aF2688
aF4929
aF2767
aF-1445
aF-4684
aF-5047
aF-3187
aF-1079
aF360
aF1585
aF2116
aF485
aF-3233
aF-6412
aF-6128
aF-1446
aF3455
aF4142
aF1123
aF-2822
aF-5204
aF-4831
aF-2249
aF196
aF854
aF200
aF-585
aF-989
aF-1472
aF-2698
aF-3849
aF-2689
aF1204
aF3934
aF2001
aF-3116
aF-6897
aF-5955
aF-97
aF4462
aF3372
aF-701
aF-3888
aF-4605
aF-3691
aF-2538
aF-1191
aF543
aF1792
aF1160
aF-1210
aF-3549
aF-4077
aF-2167
aF691
aF1824
aF478
aF-2055
aF-3867
aF-3496
aF-807
aF1362
aF648
aF-1669
aF-2734
aF-973
aF1681
aF1414
aF-2460
aF-6435
aF-6135
aF-526
aF4765
aF4423
aF-233
aF-4843
aF-6431
aF-4385
aF715
aF3868
aF3063
aF39
aF-3394
aF-5516
aF-5571
aF-3578
aF146
aF3593
aF4466
aF1839
aF-3169
aF-7635
aF-8928
aF-4073
aF4108
aF7340
aF4404
aF-1870
aF-6784
aF-7742
aF-4955
aF1143
aF4990
aF4760
aF2356
aF-1495
aF-5569
aF-8123
aF-7553
aF-2456
aF3799
aF5431
aF2708
aF-2409
aF-6265
aF-6855
aF-4104
aF849
aF3677
aF3439
aF1664
aF-1778
aF-5408
aF-7025
aF-5031
aF81
aF4014
aF4040
aF1253
aF-2571
aF-5859
aF-7070
aF-4649
aF709
aF4380
aF3426
aF-568
aF-4103
aF-4796
aF-2976
aF-1648
aF-1967
aF-1406
aF1339
aF3204
aF990
aF-3661
aF-6462
aF-4531
aF851
aF3711
aF1937
aF-1551
aF-4161
aF-4948
aF-4125
aF-1835
aF1422
aF2977
aF1234
aF-2169
aF-4840
aF-4808
aF-1987
aF920
aF1708
aF1024
aF-343
aF-2396
aF-4441
aF-4936
aF-2494
aF1607
aF3479
aF1688
aF-1922
aF-4862
aF-5569
aF-3718
aF-626
aF1875
aF3069
aF2457
aF-497
aF-4522
aF-7598
aF-7012
aF-1134
aF4705
aF5581
aF1783
aF-3692
aF-7179
aF-7085
aF-2054
aF3770
aF5169
aF2947
aF-1075
aF-4931
aF-6782
aF-5981
aF-2479
aF1589
aF3467
aF2597
aF-331
aF-3871
aF-6160
aF-5540
aF-1511
aF2736
aF3708
aF1548
aF-2032
aF-4998
aF-5795
aF-4511
aF-1661
aF1965
aF3473
aF1758
aF-1735
aF-5049
aF-6259
aF-3987
aF517
aF3342
aF3164
aF1035
aF-2261
aF-5408
aF-6445
aF-4105
aF614
aF3684
aF2718
aF-734
aF-3983
aF-5560
aF-4871
aF-2088
aF1468
aF3517
aF2667
aF-605
aF-4290
aF-6215
aF-5115
aF-1728
aF1193
aF2434
aF2443
aF917
aF-2250
aF-5784
aF-7360
aF-4953
aF653
aF4744
aF4540
aF1210
aF-3286
aF-6312
aF-7130
aF-4110
aF2209
aF5904
aF4954
aF268
aF-5377
aF-8096
aF-7087
aF-2041
aF3726
aF5478
aF3736
aF-1191
aF-6203
aF-8821
aF-6107
aF2080
aF7105
aF5329
aF-268
aF-5628
aF-7282
aF-5577
aF-1199
aF2670
aF3179
aF1481
aF-934
aF-3052
aF-4219
aF-3980
aF-2148
aF442
aF1816
aF838
aF-1778
aF-4320
aF-4728
aF-2107
aF1383
aF2628
aF1245
aF-1258
aF-3331
aF-4004
aF-3284
aF-2144
aF-1155
aF213
aF1871
aF2059
aF-477
aF-4325
aF-6340
aF-4273
aF1613
aF5029
aF3139
aF-1968
aF-6004
aF-6456
aF-2101
aF3280
aF4128
aF1784
aF-1135
aF-3805
aF-5737
aF-6312
aF-4076
aF758
aF4086
aF3635
aF360
aF-3551
aF-5987
aF-6197
aF-3582
aF1052
aF4169
aF3610
aF-334
aF-5049
aF-7379
aF-5835
aF-1432
aF2298
aF3496
aF2995
aF998
aF-2526
aF-5879
aF-7215
aF-4122
aF2166
aF5357
aF3966
aF-557
aF-5172
aF-7324
aF-6269
aF-1978
aF2494
aF4314
aF3333
aF-171
aF-4543
aF-7490
aF-7248
aF-2490
aF3508
aF5805
aF3732
aF-1354
aF-6409
aF-8660
aF-6219
aF655
aF5446
aF4766
aF677
aF-3889
aF-6204
aF-5565
aF-3367
aF-1219
aF850
aF3044
aF3486
aF388
aF-4558
aF-7265
aF-5899
aF28
aF4898
aF4325
aF384
aF-4337
aF-6979
aF-6517
aF-3300
aF904
aF3500
aF3499
aF970
aF-3021
aF-5889
aF-5932
aF-2862
aF1125
aF2884
aF2129
aF-138
aF-3154
aF-5270
aF-4651
aF-1310
aF2029
aF2301
aF65
aF-2116
aF-3200
aF-3256
aF-3225
aF-3005
aF-1164
aF1773
aF3085
aF1220
aF-2822
aF-5940
aF-5556
aF-1646
aF2564
aF2940
aF-586
aF-4247
aF-5255
aF-2966
aF668
aF1954
aF209
aF-1693
aF-1965
aF-1620
aF-2333
aF-3808
aF-3579
aF-236
aF3785
aF4168
aF124
aF-5142
aF-7784
aF-6074
aF-449
aF4086
aF4041
aF930
aF-3251
aF-6337
aF-6575
aF-2833
aF2455
aF4639
aF3142
aF-510
aF-4430
aF-6648
aF-6683
aF-2821
aF3083
aF5854
aF4153
aF-1060
aF-6949
aF-9275
aF-5864
aF934
aF4887
aF3620
aF123
aF-2963
aF-4853
aF-5463
aF-4701
aF-2227
aF1534
aF4389
aF3669
aF-407
aF-4900
aF-7351
aF-5471
aF240
aF4077
aF3771
aF1036
aF-2408
aF-5029
aF-6194
aF-5440
aF-1871
aF2821
aF4482
aF2324
aF-2297
aF-6357
aF-7616
aF-4242
aF2439
aF5984
aF4641
aF-197
aF-5787
aF-8766
aF-7097
aF-891
aF4410
aF4651
aF1304
aF-2848
aF-5494
aF-5753
aF-3661
aF-241
aF2335
aF2710
aF802
aF-2255
aF-4867
aF-5703
aF-4224
aF-1061
aF2200
aF3571
aF2170
aF-1349
aF-5121
aF-7176
aF-5563
aF-263
aF4091
aF4915
aF2491
aF-2127
aF-6439
aF-8421
aF-6056
aF437
aF5294
aF4999
aF802
aF-4535
aF-7629
aF-7162
aF-3200
aF2146
aF4690
aF4094
aF992
aF-3612
aF-7192
aF-8079
aF-3846
aF3185
aF6075
aF3697
aF-1614
aF-6183
aF-7149
aF-4456
aF-12
aF2630
aF2806
aF1954
aF69
aF-2835
aF-5586
aF-6407
aF-4184
aF486
aF3707
aF3301
aF519
aF-3412
aF-6465
aF-6427
aF-2562
aF2458
aF3927
aF1176
aF-2715
aF-4844
aF-4224
aF-1765
aF314
aF825
aF743
aF-134
aF-2452
aF-4762
aF-4640
aF-984
aF2881
aF2958
aF-324
aF-3888
aF-5007
aF-2994
aF-211
aF915
aF873
aF332
aF-1093
aF-3294
aF-4935
aF-4293
aF-1018
aF2592
aF3822
aF2043
aF-1840
aF-5860
aF-7739
aF-5742
aF199
aF4934
aF4741
aF912
aF-4089
aF-7059
aF-6832
aF-3927
aF46
aF2952
aF4167
aF3451
aF-188
aF-4828
aF-7361
aF-6365
aF-151
aF5397
aF5469
aF1501
aF-3740
aF-6623
aF-6980
aF-3002
aF3081
aF5516
aF4430
aF779
aF-3759
aF-7170
aF-8327
aF-5470
aF870
aF5418
aF5485
aF1664
aF-3815
aF-7397
aF-7677
aF-3795
aF1694
aF4058
aF3614
aF1946
aF-782
aF-3948
aF-6427
aF-6705
aF-3297
aF2488
aF4773
aF2889
aF-1462
aF-5334
aF-6662
aF-3390
aF2750
aF5239
aF2923
aF-1597
aF-5191
aF-5777
aF-3664
aF-877
aF595
aF892
aF1037
aF806
aF-748
aF-3819
aF-6211
aF-4906
aF9
aF3785
aF2473
aF-2069
aF-5342
aF-4330
aF25
aF2527
aF446
aF-2954
aF-3889
aF-1944
aF6
aF-574
aF-2198
aF-1973
aF76
aF1103
aF-536
aF-2889
aF-3367
aF-1350
aF764
aF615
aF-1195
aF-2989
aF-3338
aF-1903
aF-80
aF845
aF388
aF-1054
aF-2195
aF-2090
aF-1405
aF-1439
aF-2412
aF-2734
aF-924
aF2001
aF3024
aF673
aF-3792
aF-7127
aF-6174
aF-1012
aF3536
aF3537
aF334
aF-3093
aF-4880
aF-4475
aF-2615
aF-524
aF1408
aF2807
aF2355
aF-807
aF-5116
aF-7634
aF-5907
aF257
aF4928
aF4443
aF288
aF-4462
aF-6835
aF-4988
aF-578
aF1804
aF1279
aF272
aF84
aF-292
aF-2167
aF-5091
aF-6342
aF-3130
aF2547
aF4836
aF2131
aF-2631
aF-5883
aF-6126
aF-3113
aF1042
aF3073
aF3066
aF1520
aF-1738
aF-5333
aF-6975
aF-5015
aF126
aF3858
aF3345
aF-95
aF-4048
aF-6255
aF-4977
aF-742
aF3011
aF3410
aF541
aF-3443
aF-5621
aF-4581
aF-1712
aF152
aF399
aF782
aF1513
aF740
aF-2284
aF-5555
aF-5959
aF-1616
aF3362
aF3755
aF19
aF-4379
aF-5860
aF-3224
aF119
aF801
aF-169
aF-715
aF-431
aF-771
aF-2445
aF-4107
aF-3814
aF-990
aF2466
aF3641
aF1655
aF-2326
aF-6003
aF-7020
aF-4129
aF832
aF3600
aF2679
aF-185
aF-2814
aF-4113
aF-4164
aF-3127
aF-1031
aF1612
aF2836
aF1256
aF-2221
aF-5484
aF-5819
aF-2654
aF1099
aF2499
aF1705
aF-174
aF-2338
aF-4183
aF-5178
aF-4061
aF-298
aF3337
aF3827
aF1054
aF-3245
aF-6428
aF-6593
aF-2698
aF2674
aF4535
aF2305
aF-1977
aF-5424
aF-5783
aF-3045
aF227
aF1242
aF587
aF182
aF-7
aF-1115
aF-3103
aF-4248
aF-3132
aF-181
aF1657
aF531
aF-1911
aF-3009
aF-1676
aF186
aF7
aF-1598
aF-2469
aF-2006
aF-659
aF247
aF-127
aF-1160
aF-2194
aF-2607
aF-2118
aF-1098
aF-287
aF-230
aF-412
aF-289
aF-486
aF-1826
aF-3834
aF-4479
aF-1891
aF2005
aF3228
aF806
aF-2716
aF-4417
aF-3503
aF-2104
aF-2404
aF-2918
aF-514
aF3361
aF4057
aF697
aF-3599
aF-5435
aF-4886
aF-439
aF4081
aF4658
aF1954
aF-2745
aF-6608
aF-7644
aF-4979
aF218
aF3856
aF3953
aF1956
aF-998
aF-4333
aF-6877
aF-7167
aF-3975
aF1804
aF5578
aF4401
aF-500
aF-5552
aF-7433
aF-5730
aF-749
aF3391
aF3734
aF2308
aF147
aF-2765
aF-5915
aF-7740
aF-5941
aF-24
aF4951
aF4679
aF688
aF-4097
aF-6701
aF-5916
aF-1783
aF1821
aF2459
aF2059
aF1451
aF-180
aF-3243
aF-6313
aF-6829
aF-2841
aF2952
aF5235
aF2602
aF-2730
aF-6879
aF-6681
aF-1847
aF2707
aF2436
aF-486
aF-2146
aF-1245
aF261
aF-760
aF-3831
aF-5593
aF-3496
aF1229
aF3777
aF2133
aF-1671
aF-4548
aF-4511
aF-2422
aF-900
aF-646
aF-541
aF97
aF909
aF759
aF-1164
aF-3957
aF-5370
aF-3478
aF876
aF3300
aF1372
aF-2726
aF-5235
aF-3914
aF-81
aF1806
aF-74
aF-2636
aF-2540
aF-126
aF1030
aF-833
aF-3595
aF-4253
aF-1869
aF703
aF672
aF-740
aF-1243
aF-640
aF-582
aF-2261
aF-4298
aF-3783
aF-183
aF3171
aF3132
aF-216
aF-4490
aF-6715
aF-5137
aF-747
aF2589
aF2466
aF137
aF-2178
aF-2946
aF-2363
aF-2050
aF-2690
aF-2876
aF-615
aF2875
aF3463
aF-216
aF-5279
aF-7680
aF-4456
aF2200
aF5014
aF2223
aF-2547
aF-5534
aF-4827
aF-1824
aF109
aF307
aF509
aF966
aF265
aF-2024
aF-4547
aF-5338
aF-3138
aF694
aF2716
aF1702
aF-1155
aF-4038
aF-4770
aF-2353
aF1106
aF1997
aF-83
aF-2554
aF-3197
aF-2089
aF-1323
aF-2011
aF-2526
aF-843
aF1830
aF2326
aF-364
aF-3940
aF-5390
aF-3848
aF-783
aF1180
aF1251
aF631
aF-415
aF-2134
aF-3852
aF-4225
aF-2597
aF-9
aF1666
aF1351
aF-416
aF-2661
aF-4378
aF-4151
aF-1298
aF1947
aF2501
aF224
aF-2564
aF-3851
aF-3413
aF-2511
aF-2318
aF-1866
aF455
aF3170
aF2691
aF-1221
aF-5285
aF-6627
aF-3949
aF1097
aF3606
aF2380
aF-627
aF-3452
aF-4982
aF-4892
aF-2722
aF867
aF2618
aF1673
aF-775
aF-3365
aF-4751
aF-4378
aF-2285
aF667
aF2731
aF2286
aF-490
aF-3773
aF-5194
aF-3793
aF-1186
aF210
aF-102
aF-558
aF-200
aF-240
aF-1678
aF-3351
aF-3061
aF-476
aF1591
aF684
aF-1985
aF-3706
aF-2901
aF-527
aF157
aF-1497
aF-2879
aF-1700
aF1293
aF2506
aF286
aF-3252
aF-5145
aF-3781
aF269
aF2731
aF2081
aF-545
aF-3290
aF-4384
aF-3473
aF-999
aF878
aF724
aF-504
aF-1857
aF-2715
aF-2823
aF-2160
aF-892
aF402
aF915
aF103
aF-1502
aF-2874
aF-3244
aF-2481
aF-1553
aF-1036
aF-739
aF-154
aF719
aF941
aF-313
aF-2369
aF-4009
aF-4264
aF-2461
aF-47
aF1271
aF1169
aF271
aF-729
aF-2251
aF-4338
aF-5664
aF-4157
aF553
aF4660
aF4336
aF-203
aF-5626
aF-7967
aF-5638
aF816
aF5321
aF4169
aF-216
aF-4678
aF-6758
aF-6026
aF-3524
aF-443
aF2135
aF3753
aF3694
aF658
aF-4302
aF-7803
aF-7746
aF-2469
aF4265
aF6008
aF3100
aF-1913
aF-6039
aF-7762
aF-6255
aF-1628
aF2768
aF4550
aF3696
aF626
aF-3429
aF-6427
aF-7255
aF-5068
aF12
aF4010
aF4237
aF1057
aF-3409
aF-6167
aF-5618
aF-2580
aF-5
aF1032
aF1876
aF2427
aF661
aF-3468
aF-6961
aF-6670
aF-1894
aF3151
aF3934
aF1371
aF-1537
aF-3437
aF-4616
aF-5083
aF-4152
aF-1141
aF2782
aF4475
aF2611
aF-1524
aF-5727
aF-7962
aF-6336
aF-516
aF4770
aF5005
aF734
aF-4647
aF-6950
aF-4823
aF-496
aF1719
aF616
aF-663
aF-321
aF23
aF-1657
aF-4353
aF-5214
aF-2469
aF1913
aF3367
aF974
aF-2745
aF-5035
aF-4281
aF-1210
aF1107
aF873
aF-820
aF-1993
aF-1528
aF-324
aF-206
aF-1779
aF-3755
aF-3945
aF-1398
aF1335
aF1523
aF-505
aF-2455
aF-2598
aF-1519
aF-1314
aF-2257
aF-2214
aF109
aF2224
aF1189
aF-2380
aF-5562
aF-5444
aF-1170
aF2845
aF2708
aF-243
aF-3208
aF-4408
aF-3247
aF-946
aF617
aF800
aF-87
aF-1523
aF-2592
aF-2636
aF-1842
aF-1292
aF-956
aF-291
aF154
aF-380
aF-1891
aF-3146
aF-2283
aF68
aF981
aF-963
aF-3431
aF-3412
aF-586
aF1944
aF774
aF-2675
aF-4741
aF-3691
aF-341
aF1747
aF885
aF-1146
aF-2498
aF-2797
aF-2317
aF-1357
aF-125
aF774
aF429
aF-1312
aF-3216
aF-3904
aF-3128
aF-1304
aF656
aF2177
aF2408
aF97
aF-4190
aF-7063
aF-6039
aF-1174
aF3597
aF4026
aF1104
aF-2649
aF-5321
aF-6151
aF-4716
aF-943
aF2839
aF4317
aF2792
aF-1354
aF-5909
aF-7959
aF-5865
aF-443
aF4226
aF4354
aF862
aF-3026
aF-5089
aF-5291
aF-4505
aF-3123
aF-532
aF2771
aF4118
aF1951
aF-2594
aF-6409
aF-7107
aF-3718
aF1677
aF4212
aF3016
aF-78
aF-3525
aF-5774
aF-5616
aF-3185
aF-139
aF1895
aF2386
aF1526
aF-586
aF-3433
aF-5553
aF-5322
aF-2258
aF1566
aF3220
aF2082
aF-680
aF-3701
aF-5869
aF-6024
aF-3060
aF1777
aF4342
aF3064
aF-775
aF-4703
aF-6424
aF-5278
aF-1565
aF2131
aF3443
aF2402
aF-462
aF-3911
aF-5876
aF-5318
aF-2718
aF525
aF2258
aF1929
aF295
aF-2348
aF-4961
aF-5319
aF-1942
aF2495
aF3361
aF132
aF-3951
aF-5648
aF-3824
aF-150
aF1518
aF387
aF-1126
aF-1543
aF-1067
aF-993
aF-1439
aF-1803
aF-2216
aF-1786
aF-1103
aF-169
aF366
aF-129
aF-1475
aF-2714
aF-2456
aF-1505
aF-1381
aF-1518
aF-680
aF772
aF1095
aF-689
aF-3366
aF-4830
aF-3555
aF-8
aF2709
aF2601
aF115
aF-3336
aF-5926
aF-6166
aF-3171
aF1564
aF3915
aF2926
aF-197
aF-3821
aF-5915
aF-5437
aF-2569
aF890
aF2608
aF2060
aF-20
aF-2516
aF-4259
aF-4612
aF-3526
aF-1477
aF1046
aF3146
aF3149
aF314
aF-3943
aF-7161
aF-7140
aF-2602
aF3091
aF4947
aF3097
aF-338
aF-3642
aF-5859
aF-6816
aF-5598
aF-1274
aF3548
aF5217
aF2927
aF-1993
aF-6368
aF-7999
aF-5348
aF447
aF4676
aF5079
aF2104
aF-3098
aF-7373
aF-8107
aF-4525
aF1778
aF5413
aF4986
aF2007
aF-2485
aF-6810
aF-9086
aF-7722
aF-1720
aF4565
aF5970
aF3085
aF-2073
aF-6215
aF-7472
aF-5127
aF-467
aF3057
aF3991
aF2388
aF-1247
aF-5036
aF-6618
aF-4819
aF-496
aF2765
aF2910
aF779
aF-2387
aF-4985
aF-5349
aF-2902
aF476
aF1921
aF1009
aF-600
aF-1291
aF-1274
aF-2068
aF-3758
aF-4556
aF-2827
aF883
aF3109
aF1861
aF-1327
aF-4181
aF-4938
aF-3052
aF-288
aF1099
aF797
aF72
aF-525
aF-1524
aF-3250
aF-4780
aF-4221
aF-363
aF3238
aF2807
aF-818
aF-4598
aF-5785
aF-3144
aF1466
aF3189
aF1521
aF-1227
aF-3646
aF-4775
aF-4105
aF-1936
aF722
aF2148
aF1407
aF-780
aF-3226
aF-4706
aF-4207
aF-1496
aF1482
aF2381
aF783
aF-2084
aF-4022
aF-3543
aF-1408
aF-12
aF-403
aF-1389
aF-1609
aF-1147
aF-984
aF-1298
aF-1436
aF-853
aF-135
aF-325
aF-1645
aF-2933
aF-2902
aF-1174
aF950
aF1287
aF-765
aF-3950
aF-5582
aF-3428
aF1337
aF4453
aF2870
aF-2417
aF-6824
aF-7056
aF-2804
aF2616
aF4127
aF2072
aF-1540
aF-4920
aF-6262
aF-4804
aF-1296
aF1881
aF2821
aF1713
aF-563
aF-3292
aF-5427
aF-5611
aF-3041
aF1300
aF3863
aF2721
aF-536
aF-4063
aF-6119
aF-5827
aF-3109
aF780
aF3617
aF4092
aF1877
aF-2363
aF-6432
aF-7713
aF-5235
aF-10
aF3954
aF4433
aF2273
aF-1587
aF-5469
aF-7561
aF-6979
aF-2938
aF2797
aF5421
aF4378
aF105
aF-5450
aF-8608
aF-7905
aF-2209
aF4573
aF6407
aF3779
aF-1019
aF-5761
aF-8336
aF-7943
aF-4114
aF1782
aF5476
aF5127
aF1650
aF-3483
aF-7651
aF-8793
aF-5280
aF1969
aF6348
aF4953
aF-443
aF-6259
aF-8419
aF-5918
aF-488
aF3118
aF2969
aF1301
aF-380
aF-2314
aF-4427
aF-5294
aF-3574
aF-113
aF2241
aF2080
aF358
aF-1865
aF-4079
aF-5229
aF-3769
aF28
aF2683
aF2094
aF-658
aF-3161
aF-3768
aF-2734
aF-1819
aF-1385
aF-394
aF767
aF699
aF-700
aF-2280
aF-3019
aF-2684
aF-2159
aF-1794
aF-555
aF1431
aF2126
aF232
aF-2937
aF-5030
aF-4682
aF-1950
aF1137
aF2184
aF982
aF-1432
aF-3664
aF-4301
aF-2867
aF-605
aF563
aF379
aF-187
aF-843
aF-1661
aF-2376
aF-2822
aF-2445
aF-1146
aF-76
aF122
aF-436
aF-1537
aF-2023
aF-1641
aF-1414
aF-1805
aF-2200
aF-1407
aF645
aF2035
aF923
aF-2263
aF-5371
aF-6150
aF-3171
aF1556
aF3963
aF3144
aF291
aF-3308
aF-6160
aF-7195
aF-5085
aF646
aF4951
aF5052
aF1318
aF-4123
aF-7550
aF-7656
aF-2584
aF3860
aF5855
aF4083
aF-152
aF-5100
aF-7644
aF-6950
aF-2897
aF2878
aF4987
aF3697
aF52
aF-4413
aF-7332
aF-8076
aF-3873
aF3429
aF6690
aF5098
aF-128
aF-5443
aF-7897
aF-6666
aF-719
aF4532
aF5122
aF2712
aF-1070
aF-4742
aF-6886
aF-6502
aF-2956
aF1978
aF4463
aF3154
aF-904
aF-5090
aF-6779
aF-4981
aF-767
aF2301
aF2650
aF1580
aF-266
aF-2649
aF-5088
aF-6252
aF-4604
aF-511
aF3214
aF3760
aF1256
aF-2528
aF-5673
aF-6621
aF-3961
aF1014
aF4078
aF3450
aF325
aF-3325
aF-5717
aF-6191
aF-4638
aF-957
aF3019
aF4513
aF2429
aF-2287
aF-6331
aF-7092
aF-3398
aF2414
aF4465
aF2143
aF-1746
aF-4541
aF-4742
aF-3067
aF-1421
aF-672
aF-21
aF999
aF1265
aF-442
aF-3505
aF-5812
aF-4938
aF-415
aF3663
aF3647
aF343
aF-3402
aF-5383
aF-4903
aF-2832
aF-755
aF392
aF601
aF31
aF-796
aF-1067
aF-951
aF-1336
aF-2418
aF-3215
aF-2508
aF-636
aF554
aF308
aF-366
aF-684
aF-1496
aF-3310
aF-4463
aF-2839
aF836
aF2864
aF1072
aF-2792
aF-5165
aF-4307
aF-1528
aF645
aF1417
aF1305
aF405
aF-1740
aF-4616
aF-6312
aF-4750
aF-345
aF3288
aF3566
aF1242
aF-2112
aF-4961
aF-5641
aF-3326
aF330
aF2026
aF801
aF-1250
aF-1939
aF-1071
aF-943
aF-3140
aF-5134
aF-3318
aF1823
aF5088
aF3035
aF-2574
aF-6896
aF-7191
aF-3091
aF2635
aF4543
aF2689
aF-582
aF-3926
aF-6140
aF-6708
aF-4927
aF-389
aF3902
aF5090
aF2855
aF-2367
aF-7430
aF-9355
aF-6181
aF1559
aF6735
aF5670
aF1141
aF-4114
aF-6035
aF-6127
aF-3066
aF3822
aF7245
aF5951
aF1168
aF-5259
aF-9207
aF-9139
aF-4897
aF2734
aF6860
aF5577
aF162
aF-6155
aF-9317
aF-7756
aF-1783
aF3529
aF4989
aF3895
aF1080
aF-2878
aF-6419
aF-7670
aF-5213
aF278
aF4150
aF3946
aF1286
aF-2144
aF-5102
aF-6401
aF-5078
aF-1012
aF2690
aF3021
aF639
aF-2247
aF-3459
aF-2872
aF-2182
aF-2176
aF-1782
aF186
aF2138
aF1369
aF-1795
aF-4610
aF-5188
aF-3158
aF-109
aF1735
aF1998
aF1021
aF-898
aF-3206
aF-4956
aF-4950
aF-2571
aF1000
aF3066
aF2090
aF-1113
aF-4283
aF-5357
aF-3608
aF-300
aF1525
aF1260
aF216
aF-962
aF-2371
aF-3440
aF-3236
aF-1558
aF294
aF272
aF-1383
aF-2296
aF-1120
aF694
aF673
aF-1576
aF-4107
aF-4828
aF-2810
aF1027
aF3735
aF3324
aF11
aF-4747
aF-7987
aF-7056
aF-1873
aF3584
aF4915
aF2214
aF-2069
aF-5332
aF-6483
aF-5377
aF-1925
aF2209
aF4088
aF3005
aF-477
aF-4750
aF-7356
aF-6782
aF-2618
aF2737
aF4888
aF3078
aF-972
aF-4998
aF-6756
aF-5574
aF-1022
aF3557
aF4711
aF2667
aF-1733
aF-5940
aF-7615
aF-5204
aF828
aF4807
aF4082
aF511
aF-3696
aF-6357
aF-6574
aF-3822
aF869
aF3914
aF3608
aF758
aF-3027
aF-5848
aF-6461
aF-4429
aF-514
aF2929
aF3618
aF1289
aF-2519
aF-5523
aF-5734
aF-2894
aF303
aF1432
aF1197
aF806
aF-129
aF-2284
aF-5039
aF-6297
aF-3808
aF1511
aF4725
aF3422
aF-939
aF-5432
aF-7605
aF-5624
aF649
aF5504
aF5341
aF1172
aF-4536
aF-8122
aF-7689
aF-3334
aF2217
aF4648
aF3650
aF393
aF-3887
aF-6966
aF-7078
aF-3244
aF2217
aF4442
aF2775
aF-748
aF-4236
aF-6026
aF-5601
aF-2923
aF755
aF3417
aF3460
aF460
aF-3789
aF-6597
aF-6201
aF-1873
aF3005
aF4018
aF1545
aF-1767
aF-3930
aF-4208
aF-3596
aF-2910
aF-1550
aF233
aF1270
aF1173
aF-57
aF-1800
aF-3223
aF-3668
aF-2687
aF-703
aF482
aF38
aF-1209
aF-1834
aF-919
aF405
aF-514
aF-3264
aF-5035
aF-3635
aF729
aF3608
aF1912
aF-2313
aF-5327
aF-4753
aF-1050
aF1809
aF1438
aF-451
aF-1915
aF-2422
aF-2534
aF-2573
aF-2247
aF-1475
aF-247
aF948
aF1274
aF391
aF-1549
aF-3545
aF-4286
aF-3243
aF-1340
aF113
aF879
aF1219
aF825
aF-1151
aF-4301
aF-6220
aF-4720
aF8
aF3860
aF3672
aF298
aF-3795
aF-6125
aF-5566
aF-2561
aF777
aF2537
aF2523
aF1079
aF-1656
aF-4790
aF-6627
aF-5668
aF-639
aF4475
aF5050
aF1386
aF-4044
aF-7503
aF-6865
aF-1020
aF4744
aF5431
aF2112
aF-2818
aF-6765
aF-7937
aF-5430
aF289
aF4538
aF4770
aF2041
aF-2319
aF-6326
aF-8180
aF-6450
aF-1157
aF4060
aF5045
aF2012
aF-2825
aF-6404
aF-6822
aF-3840
aF944
aF3557
aF3108
aF1101
aF-2120
aF-5400
aF-6936
aF-5131
aF-88
aF4319
aF4668
aF1245
aF-3566
aF-6749
aF-6808
aF-3978
aF74
aF2419
aF2582
aF1414
aF-272
aF-1975
aF-4146
aF-5171
aF-3802
aF-800
aF1713
aF1958
aF158
aF-2198
aF-3379
aF-3201
aF-2365
aF-1351
aF-132
aF1139
aF1410
aF-5
aF-2625
aF-4956
aF-5356
aF-2689
aF1731
aF4029
aF2365
aF-2054
aF-6152
aF-6665
aF-2078
aF3397
aF3855
aF-173
aF-4484
aF-5812
aF-3209
aF1442
aF3074
aF1249
aF-1412
aF-3778
aF-5177
aF-4784
aF-1967
aF1999
aF3873
aF1882
aF-2493
aF-6098
aF-6379
aF-2458
aF2557
aF4149
aF2116
aF-1836
aF-5552
aF-6883
aF-5183
aF-1138
aF2909
aF3829
aF1840
aF-1411
aF-4874
aF-7041
aF-6201
aF-1974
aF3249
aF5392
aF3083
aF-1921
aF-6355
aF-7769
aF-5546
aF88
aF4585
aF4508
aF1530
aF-2361
aF-5438
aF-6461
aF-5339
aF-1409
aF3013
aF4862
aF3504
aF-1026
aF-6090
aF-8528
aF-6269
aF41
aF4664
aF4054
aF152
aF-3920
aF-5655
aF-4027
aF-570
aF1248
aF394
aF-1252
aF-1689
aF-638
aF-225
aF-1805
aF-3929
aF-4152
aF-1421
aF2001
aF2826
aF548
aF-2772
aF-4871
aF-4858
aF-2651
aF710
aF2893
aF2439
aF-523
aF-4254
aF-6369
aF-4873
aF429
aF4493
aF3834
aF-313
aF-5200
aF-7591
aF-5845
aF-965
aF3511
aF4379
aF1931
aF-1945
aF-5343
aF-6903
aF-5687
aF-1097
aF3549
aF4624
aF2058
aF-2617
aF-6174
aF-6693
aF-3202
aF2274
aF4410
aF2849
aF-775
aF-4498
aF-6276
aF-5306
aF-1447
aF2347
aF3368
aF1990
aF-849
aF-3908
aF-5758
aF-5297
aF-1980
aF2182
aF3909
aF2244
aF-1506
aF-5257
aF-6573
aF-4198
aF-194
aF2537
aF2587
aF202
aF-2640
aF-4107
aF-3608
aF-1635
aF123
aF393
aF-200
aF-914
aF-1347
aF-1536
aF-1485
aF-1260
aF-1043
aF-1129
aF-1739
aF-2324
aF-1871
aF-253
aF1015
aF378
aF-1875
aF-3632
aF-2916
aF-158
aF1545
aF213
aF-2566
aF-4102
aF-2936
aF-88
aF1409
aF231
aF-2167
aF-3614
aF-2775
aF-410
aF1197
aF853
aF-655
aF-2330
aF-3301
aF-2962
aF-1851
aF-617
aF617
aF1492
aF818
aF-1577
aF-4455
aF-6040
aF-4281
aF971
aF4906
aF4307
aF92
aF-5165
aF-8314
aF-7019
aF-1342
aF4078
aF5210
aF2600
aF-1725
aF-5452
aF-7067
aF-5788
aF-732
aF4239
aF5265
aF2255
aF-3063
aF-7254
aF-7520
aF-3226
aF2334
aF4120
aF2082
aF-1245
aF-4080
aF-5540
aF-5267
aF-3004
aF637
aF3496
aF3468
aF360
aF-3861
aF-6518
aF-5888
aF-1807
aF2344
aF3132
aF1138
aF-1348
aF-3048
aF-3756
aF-3625
aF-2583
aF-774
aF1068
aF1934
aF928
aF-1599
aF-4261
aF-5432
aF-3721
aF450
aF3645
aF3200
aF-547
aF-4939
aF-6951
aF-4834
aF348
aF3458
aF2530
aF136
aF-1496
aF-2180
aF-2923
aF-4081
aF-4228
aF-2325
aF758
aF2730
aF1835
aF-737
aF-3187
aF-4748
aF-4657
aF-2406
aF897
aF3187
aF2877
aF-274
aF-4530
aF-7160
aF-5708
aF-55
aF4789
aF4592
aF127
aF-5254
aF-7750
aF-5548
aF755
aF5042
aF3566
aF-1249
aF-5458
aF-6305
aF-2970
aF1746
aF3217
aF1539
aF-1148
aF-3495
aF-4873
aF-4866
aF-2910
aF901
aF4004
aF3845
aF37
aF-5133
aF-7887
aF-6158
aF-465
aF4768
aF4809
aF342
aF-4762
aF-7556
aF-6583
aF-2249
aF2114
aF3572
aF2305
aF-80
aF-2526
aF-4633
aF-5948
aF-5543
aF-2498
aF2279
aF4841
aF3011
aF-1352
aF-5341
aF-6988
aF-5091
aF100
aF3862
aF3801
aF1173
aF-2476
aF-5363
aF-6149
aF-4066
aF347
aF3749
aF3774
aF738
aF-3715
aF-7156
aF-7064
aF-3330
aF1202
aF3461
aF2646
aF387
aF-1616
aF-3164
aF-4493
aF-5249
aF-4259
aF-751
aF3256
aF4415
aF1891
aF-2720
aF-6249
aF-6939
aF-3271
aF2833
aF5275
aF3001
aF-1528
aF-5398
aF-6688
aF-5294
aF-1922
aF1967
aF3952
aF2757
aF-1080
aF-5312
aF-7133
aF-4955
aF417
aF3961
aF2617
aF-1424
aF-4904
aF-5440
aF-2463
aF1736
aF3068
aF872
aF-2356
aF-4648
aF-5109
aF-3471
aF-326
aF2134
aF2800
aF1300
aF-1996
aF-5240
aF-6342
aF-3559
aF1546
aF4155
aF2586
aF-1262
aF-4720
aF-5851
aF-4328
aF-1461
aF790
aF1763
aF1803
aF724
aF-1699
aF-4550
aF-6310
aF-4613
aF783
aF4988
aF4664
aF411
aF-5121
aF-8005
aF-6128
aF-682
aF3559
aF3257
aF104
aF-2964
aF-4267
aF-3883
aF-2730
aF-1320
aF219
aF1792
aF2234
aF470
aF-2723
aF-5392
aF-5704
aF-2942
aF925
aF2655
aF1661
aF-631
aF-2811
aF-3952
aF-3548
aF-1800
aF46
aF1017
aF901
aF-181
aF-1926
aF-3829
aF-4438
aF-2786
aF328
aF2602
aF2102
aF-898
aF-4208
aF-5497
aF-4138
aF-1068
aF1713
aF2637
aF1780
aF-534
aF-3849
aF-6322
aF-5692
as.