(dp1
S'peak2peak'
p2
F0.0034875654448577619
sS'samples'
p3
(lp4
F-1654
aF-1800
aF-1452
aF-537
aF220
aF414
aF151
aF-498
aF-1794
aF-3520
aF-4532
aF-3470
aF-376
aF2485
aF2968
aF1122
aF-1769
aF-4231
aF-5396
aF-4536
aF-1663
aF1485
aF2857
aF2096
aF-4
aF-2274
aF-4053
aF-5038
aF-4868
aF-3051
aF433
aF3599
aF3984
aF1246
aF-2946
aF-6144
aF-7007
aF-4972
aF-924
aF3017
aF4423
aF3042
aF-28
aF-4147
aF-7056
aF-7031
aF-4000
aF706
aF4098
aF4402
aF1933
aF-2233
aF-5768
aF-7232
aF-5617
aF-895
aF3235
aF4417
aF3074
aF-579
aF-4805
aF-7331
aF-6916
aF-2762
aF2697
aF4751
aF3281
aF-649
aF-5191
aF-7185
aF-5795
aF-1596
aF1965
aF3312
aF2735
aF253
aF-2891
aF-5601
aF-6824
aF-4928
aF-212
aF4083
aF5229
aF2969
aF-1730
aF-6207
aF-7956
aF-6351
aF-1423
aF3777
aF5613
aF4089
aF-41
aF-4917
aF-8010
aF-8455
aF-5314
aF813
aF5514
aF6560
aF4227
aF-1575
aF-7346
aF-9749
aF-8503
aF-2586
aF4367
aF6684
aF5706
aF1694
aF-4364
aF-8350
aF-9600
aF-6968
aF476
aF6175
aF6981
aF5004
aF-641
aF-6704
aF-9602
aF-9656
aF-5122
aF2721
aF6976
aF6611
aF3593
aF-2199
aF-6890
aF-8483
aF-7585
aF-1553
aF4949
aF6543
aF5005
aF976
aF-4226
aF-7798
aF-8844
aF-6879
aF-1261
aF4255
aF5742
aF4010
aF-13
aF-4667
aF-7529
aF-7764
aF-5022
aF-89
aF3718
aF4003
aF1637
aF-1558
aF-3648
aF-4003
aF-3473
aF-2827
aF-2009
aF-769
aF400
aF878
aF448
aF-499
aF-1275
aF-1806
aF-2471
aF-2926
aF-2662
aF-2058
aF-1366
aF-208
aF1638
aF2723
aF1135
aF-2200
aF-5488
aF-7146
aF-5569
aF-1358
aF2867
aF4768
aF4272
aF1336
aF-3459
aF-7374
aF-8659
aF-6265
aF-113
aF5114
aF6372
aF4626
aF-214
aF-5764
aF-8443
aF-8375
aF-4417
aF2367
aF5805
aF5731
aF3480
aF-1056
aF-5571
aF-8538
aF-9202
aF-4900
aF2805
aF6925
aF6899
aF2793
aF-4216
aF-9052
aF-10083
aF-7344
aF-1186
aF4041
aF5226
aF4204
aF1543
aF-2510
aF-6229
aF-8768
aF-7909
aF-2712
aF3459
aF6249
aF5127
aF1128
aF-4062
aF-7611
aF-8335
aF-5447
aF410
aF4805
aF5121
aF2151
aF-2572
aF-6031
aF-6263
aF-4065
aF-1051
aF1007
aF1101
aF373
aF-331
aF-813
aF-1679
aF-2427
aF-2255
aF-1994
aF-1590
aF-1081
aF-797
aF-1324
aF-1316
aF-115
aF910
aF880
aF-758
aF-3458
aF-5195
aF-4528
aF-1657
aF1651
aF3129
aF2308
aF41
aF-2824
aF-5109
aF-5928
aF-4850
aF-1618
aF2489
aF4757
aF3820
aF9
aF-4726
aF-7786
aF-7717
aF-3742
aF1963
aF4851
aF4514
aF2016
aF-2176
aF-5959
aF-7799
aF-7260
aF-2904
aF3174
aF5969
aF5056
aF1182
aF-4419
aF-8222
aF-8685
aF-5002
aF1476
aF5435
aF5089
aF2217
aF-2070
aF-5697
aF-7141
aF-6260
aF-3022
aF1001
aF3678
aF4342
aF2640
aF-897
aF-4762
aF-7356
aF-7212
aF-3449
aF2109
aF5110
aF4344
aF799
aF-3830
aF-6804
aF-7157
aF-4687
aF79
aF3836
aF4490
aF2320
aF-1631
aF-5209
aF-6530
aF-5223
aF-2080
aF694
aF2364
aF3047
aF1728
aF-1442
aF-4763
aF-6389
aF-5094
aF-657
aF3242
aF3793
aF1728
aF-1636
aF-4577
aF-5765
aF-4088
aF-447
aF2034
aF1997
aF401
aF-1489
aF-2585
aF-2781
aF-2623
aF-1904
aF-752
aF-255
aF-298
aF-226
aF-135
aF-543
aF-1712
aF-3172
aF-3614
aF-2098
aF499
aF1900
aF1010
aF-1072
aF-2700
aF-3263
aF-2678
aF-1319
aF110
aF789
aF169
aF-1108
aF-1974
aF-2002
aF-1539
aF-1809
aF-2579
aF-2142
aF-67
aF1939
aF1792
aF-688
aF-3664
aF-5052
aF-4124
aF-1277
aF1686
aF2994
aF1989
aF-944
aF-4075
aF-5375
aF-4060
aF-1276
aF868
aF1312
aF857
aF495
aF-390
aF-2449
aF-4520
aF-4887
aF-3076
aF-196
aF2521
aF3364
aF1929
aF-1139
aF-4744
aF-7342
aF-6686
aF-2162
aF3004
aF5231
aF4301
aF1190
aF-2928
aF-6410
aF-8100
aF-7074
aF-2497
aF3148
aF5840
aF5317
aF2016
aF-3265
aF-7980
aF-10184
aF-8535
aF-2057
aF5050
aF7268
aF5628
aF269
aF-5864
aF-9147
aF-9745
aF-4773
aF3530
aF7525
aF6704
aF2990
aF-2814
aF-7411
aF-9071
aF-8362
aF-3821
aF2997
aF6778
aF6729
aF3597
aF-2535
aF-7836
aF-9536
aF-8183
aF-2186
aF4999
aF7084
aF5332
aF1004
aF-4517
aF-7768
aF-8261
aF-6664
aF-2217
aF2736
aF5165
aF5267
aF2975
aF-1498
aF-5950
aF-8375
aF-8155
aF-4258
aF1919
aF5574
aF5474
aF2439
aF-2676
aF-6674
aF-7660
aF-6084
aF-1959
aF2063
aF2996
aF2422
aF1356
aF286
aF-1222
aF-3655
aF-5839
aF-6609
aF-4493
aF411
aF4453
aF4926
aF2834
aF-727
aF-4250
aF-6222
aF-6930
aF-5677
aF-1161
aF3452
aF5425
aF4698
aF1281
aF-3519
aF-7092
aF-8685
aF-7820
aF-3252
aF3146
aF6598
aF6282
aF2534
aF-3753
aF-8313
aF-9519
aF-7476
aF-737
aF5586
aF6836
aF4903
aF-114
aF-5817
aF-8829
aF-9180
aF-6298
aF-196
aF4871
aF6376
aF5362
aF1652
aF-3844
aF-7982
aF-9692
aF-7261
aF189
aF6193
aF7272
aF4345
aF-1945
aF-7325
aF-9154
aF-7628
aF-2936
aF2363
aF4674
aF4025
aF1384
aF-2256
aF-4950
aF-5860
aF-5111
aF-3246
aF-745
aF2179
aF3931
aF2854
aF-789
aF-4865
aF-6354
aF-4155
aF-325
aF1914
aF1340
aF-957
aF-2978
aF-3223
aF-1559
aF1085
aF2445
aF772
aF-2866
aF-5726
aF-5716
aF-2367
aF1960
aF3815
aF2905
aF702
aF-2026
aF-4621
aF-6448
aF-6548
aF-3697
aF1370
aF5072
aF5476
aF2758
aF-2458
aF-7145
aF-9113
aF-7715
aF-1531
aF5020
aF6737
aF4978
aF-47
aF-6099
aF-9241
aF-9094
aF-4231
aF3342
aF6778
aF5702
aF1899
aF-3431
aF-7307
aF-8761
aF-7611
aF-3538
aF1947
aF5591
aF5838
aF3432
aF-1404
aF-6268
aF-8446
aF-7964
aF-2646
aF4547
aF7313
aF5611
aF-114
aF-6639
aF-9290
aF-7865
aF-2495
aF3640
aF5219
aF3044
aF-766
aF-4257
aF-5759
aF-5224
aF-3374
aF-1156
aF1010
aF2652
aF2861
aF964
aF-2588
aF-5955
aF-7006
aF-4334
aF1085
aF4806
aF4073
aF-11
aF-4966
aF-7625
aF-6152
aF-802
aF4053
aF4765
aF1722
aF-2716
aF-5858
aF-6568
aF-4736
aF-1245
aF1859
aF2971
aF2653
aF881
aF-2011
aF-4751
aF-6140
aF-6002
aF-2480
aF2729
aF5358
aF4642
aF426
aF-5300
aF-9023
aF-8564
aF-3087
aF3899
aF6442
aF4645
aF-55
aF-5328
aF-7990
aF-7209
aF-2377
aF3038
aF4717
aF3396
aF619
aF-2009
aF-3683
aF-5470
aF-6125
aF-4943
aF-1355
aF3473
aF5956
aF4344
aF-1055
aF-6440
aF-8830
aF-7066
aF-1276
aF4086
aF4954
aF2504
aF-1117
aF-4201
aF-5513
aF-4956
aF-3137
aF-1010
aF813
aF2059
aF2480
aF1659
aF-1055
aF-4465
aF-6359
aF-5565
aF-1481
aF3067
aF4270
aF2227
aF-1481
aF-4676
aF-5697
aF-4195
aF-1073
aF1432
aF1557
aF-187
aF-1859
aF-1899
aF-240
aF1002
aF-565
aF-3827
aF-5787
aF-4497
aF93
aF3994
aF4078
aF1280
aF-2687
aF-5703
aF-6706
aF-5212
aF-1349
aF2354
aF3913
aF3470
aF1052
aF-2588
aF-5662
aF-7475
aF-7197
aF-3796
aF2072
aF6025
aF5946
aF2594
aF-3500
aF-8392
aF-9720
aF-6694
aF1153
aF7007
aF7180
aF3491
aF-2755
aF-7835
aF-9430
aF-7997
aF-3466
aF2047
aF5338
aF6135
aF4703
aF471
aF-5068
aF-8298
aF-8811
aF-6586
aF202
aF5808
aF6799
aF4789
aF-1561
aF-6971
aF-8024
aF-7368
aF-2094
aF4722
aF6300
aF5366
aF2067
aF-3432
aF-7192
aF-8893
aF-7683
aF-2004
aF3945
aF6293
aF6233
aF3536
aF-2245
aF-7688
aF-10049
aF-8732
aF-2258
aF4877
aF6400
aF4386
aF-206
aF-5266
aF-7664
aF-7710
aF-4736
aF-12
aF2690
aF3087
aF2709
aF1988
aF466
aF-2333
aF-5711
aF-7904
aF-7132
aF-2320
aF3530
aF5788
aF4338
aF72
aF-4780
aF-7561
aF-7543
aF-4617
aF-470
aF2272
aF3247
aF3219
aF1958
aF-709
aF-4000
aF-6697
aF-7534
aF-5457
aF-568
aF3906
aF5272
aF3747
aF-520
aF-5342
aF-8294
aF-7737
aF-3543
aF1337
aF3892
aF4224
aF3232
aF808
aF-2808
aF-6757
aF-9013
aF-6648
aF349
aF5558
aF5276
aF1922
aF-2362
aF-5278
aF-6185
aF-5839
aF-4708
aF-2272
aF1598
aF4709
aF4875
aF1898
aF-3247
aF-7187
aF-8011
aF-4682
aF1664
aF5106
aF4153
aF570
aF-3665
aF-5811
aF-4463
aF-883
aF1290
aF327
aF-2162
aF-3230
aF-1468
aF1450
aF2826
aF1314
aF-2235
aF-5115
aF-5851
aF-4274
aF-688
aF2636
aF3294
aF1351
aF-1543
aF-3135
aF-2736
aF-1963
aF-2682
aF-4240
aF-3992
aF-522
aF3754
aF5189
aF2812
aF-2269
aF-7025
aF-9017
aF-6871
aF-389
aF5141
aF5957
aF3502
aF-1057
aF-5491
aF-7777
aF-7923
aF-6214
aF-2195
aF3201
aF6045
aF5347
aF1633
aF-4239
aF-7842
aF-8276
aF-6041
aF588
aF6060
aF6524
aF3437
aF-2892
aF-8055
aF-9311
aF-6728
aF-827
aF3829
aF4603
aF3071
aF515
aF-1948
aF-3729
aF-4709
aF-4874
aF-4401
aF-2747
aF1004
aF3964
aF3917
aF685
aF-3972
aF-6830
aF-6288
aF-2356
aF1739
aF2594
aF967
aF-984
aF-1961
aF-1759
aF-1053
aF-657
aF-1637
aF-3417
aF-4029
aF-2399
aF813
aF2988
aF2468
aF-308
aF-3400
aF-4909
aF-4293
aF-2391
aF-619
aF423
aF853
aF1030
aF1223
aF791
aF-1248
aF-4576
aF-7472
aF-7806
aF-3495
aF3574
aF7111
aF5478
aF107
aF-5806
aF-8347
aF-7853
aF-2452
aF4428
aF6490
aF4890
aF913
aF-3712
aF-6958
aF-8513
aF-7953
aF-4394
aF1550
aF5976
aF6668
aF3747
aF-2215
aF-7049
aF-8615
aF-7524
aF-1610
aF4781
aF6672
aF5205
aF-59
aF-6342
aF-9439
aF-8612
aF-4106
aF1475
aF4292
aF4192
aF2504
aF-181
aF-3036
aF-5587
aF-7054
aF-6462
aF-3265
aF1652
aF5034
aF5033
aF1649
aF-3906
aF-8177
aF-8846
aF-4805
aF1919
aF5428
aF4240
aF519
aF-3586
aF-5659
aF-5055
aF-3311
aF-2138
aF-1063
aF367
aF1850
aF2419
aF1039
aF-1579
aF-4614
aF-5978
aF-4590
aF-1526
aF1891
aF3561
aF2661
aF-375
aF-3479
aF-4613
aF-3908
aF-2624
aF-1776
aF-1250
aF-304
aF1360
aF2493
aF1618
aF-1239
aF-4611
aF-6617
aF-5917
aF-1980
aF2975
aF5030
aF3377
aF-749
aF-5089
aF-7164
aF-6184
aF-2820
aF825
aF2810
aF3258
aF2638
aF907
aF-2009
aF-5477
aF-8069
aF-7831
aF-3077
aF3759
aF6912
aF5395
aF-14
aF-6456
aF-9361
aF-8293
aF-2446
aF4504
aF6614
aF4779
aF482
aF-4705
aF-7639
aF-7894
aF-5411
aF-804
aF2501
aF3977
aF4714
aF3819
aF-288
aF-5833
aF-9256
aF-8978
aF-3611
aF3990
aF6985
aF5619
aF893
aF-4985
aF-8187
aF-8639
aF-4666
aF2044
aF5374
aF5034
aF2683
aF-554
aF-3267
aF-5702
aF-7374
aF-6920
aF-3308
aF2144
aF5335
aF5187
aF1936
aF-3434
aF-7851
aF-9274
aF-6626
aF-225
aF4929
aF5410
aF2674
aF-1813
aF-5565
aF-6713
aF-5244
aF-2016
aF817
aF1665
aF1037
aF310
aF144
aF-187
aF-1925
aF-4263
aF-5621
aF-4644
aF-1063
aF2619
aF3770
aF1836
aF-1170
aF-3451
aF-4424
aF-3964
aF-2735
aF-1586
aF-667
aF470
aF2042
aF2888
aF1616
aF-1712
aF-5438
aF-7553
aF-5784
aF-109
aF4657
aF5216
aF2229
aF-2464
aF-5943
aF-6594
aF-4672
aF-1569
aF814
aF1691
aF1389
aF579
aF-66
aF-1063
aF-2777
aF-4418
aF-4911
aF-3354
aF218
aF3089
aF3005
aF481
aF-2526
aF-4353
aF-4665
aF-3141
aF-1021
aF203
aF776
aF768
aF199
aF-582
aF-1545
aF-2531
aF-3238
aF-3625
aF-3154
aF-1313
aF1025
aF2341
aF1834
aF-425
aF-3219
aF-4502
aF-3878
aF-2271
aF-787
aF-293
aF-405
aF105
aF1123
aF1510
aF205
aF-2980
aF-6344
aF-7369
aF-4341
aF1704
aF5628
aF4964
aF897
aF-4313
aF-7637
aF-7669
aF-4384
aF28
aF2893
aF3975
aF3568
aF1281
aF-2212
aF-5770
aF-7934
aF-7128
aF-3090
aF1964
aF4705
aF4456
aF2262
aF-2168
aF-6047
aF-8071
aF-6939
aF-894
aF4542
aF5436
aF3566
aF34
aF-3721
aF-5929
aF-6548
aF-5762
aF-3378
aF356
aF3697
aF4820
aF3577
aF82
aF-4290
aF-7638
aF-8416
aF-5176
aF958
aF5401
aF5859
aF2917
aF-2017
aF-6187
aF-7626
aF-6227
aF-3077
aF131
aF2586
aF3890
aF3405
aF865
aF-2896
aF-5961
aF-7024
aF-5354
aF-1623
aF2057
aF4123
aF4059
aF1721
aF-2016
aF-5335
aF-6742
aF-5760
aF-3183
aF-167
aF2476
aF3980
aF3718
aF1245
aF-2937
aF-6797
aF-8585
aF-7028
aF-1732
aF4175
aF6770
aF5448
aF377
aF-5685
aF-9011
aF-8692
aF-4552
aF1273
aF4667
aF5210
aF3943
aF662
aF-3850
aF-7518
aF-8865
aF-7008
aF-1752
aF3970
aF6112
aF4883
aF826
aF-4792
aF-8654
aF-9108
aF-5420
aF907
aF4945
aF5214
aF3267
aF-500
aF-4497
aF-6951
aF-7175
aF-4327
aF-55
aF3035
aF4362
aF3965
aF1571
aF-2673
aF-6572
aF-7935
aF-5900
aF-304
aF4561
aF5106
aF2436
aF-2141
aF-5850
aF-6810
aF-4931
aF-1026
aF1675
aF1740
aF1056
aF753
aF225
aF-1418
aF-3825
aF-5317
aF-4569
aF-1330
aF2291
aF3491
aF1879
aF-1308
aF-4100
aF-5027
aF-3524
aF-773
aF891
aF686
aF-358
aF-812
aF-573
aF-618
aF-1527
aF-2656
aF-3007
aF-2231
aF-902
aF198
aF817
aF1074
aF465
aF-1497
aF-3882
aF-5094
aF-3742
aF-349
aF2518
aF2782
aF604
aF-2279
aF-3843
aF-3355
aF-2556
aF-1657
aF-772
aF-366
aF269
aF931
aF757
aF-1183
aF-3468
aF-5081
aF-5110
aF-2106
aF2479
aF4410
aF2525
aF-1325
aF-4998
aF-6268
aF-4645
aF-1481
aF1043
aF1971
aF1592
aF354
aF-1180
aF-2753
aF-4034
aF-4466
aF-3390
aF-682
aF2348
aF3564
aF2150
aF-1232
aF-4910
aF-6563
aF-5011
aF-1134
aF2318
aF2974
aF1382
aF-742
aF-2536
aF-3675
aF-4129
aF-3873
aF-2192
aF454
aF2188
aF2620
aF1151
aF-1785
aF-4495
aF-5698
aF-4701
aF-1280
aF2451
aF3562
aF1989
aF-928
aF-3764
aF-5075
aF-4370
aF-2156
aF721
aF2743
aF2543
aF171
aF-2822
aF-4313
aF-3628
aF-1901
aF-425
aF120
aF-26
aF-83
aF-195
aF-797
aF-1967
aF-2834
aF-2592
aF-1573
aF-405
aF468
aF362
aF-888
aF-2445
aF-2861
aF-1419
aF466
aF739
aF-798
aF-2680
aF-3520
aF-2172
aF104
aF1045
aF444
aF-701
aF-1964
aF-2403
aF-1654
aF-953
aF-1022
aF-1591
aF-2037
aF-1621
aF298
aF1712
aF691
aF-1903
aF-4136
aF-4563
aF-2813
aF83
aF2266
aF2702
aF1228
aF-1771
aF-4815
aF-6034
aF-4268
aF-342
aF2784
aF3172
aF1339
aF-1236
aF-3316
aF-4453
aF-4380
aF-2720
aF-263
aF1601
aF2061
aF1349
aF-188
aF-2460
aF-4327
aF-4949
aF-3851
aF-870
aF2236
aF2771
aF1105
aF-977
aF-2718
aF-3446
aF-3135
aF-2450
aF-1874
aF-904
aF191
aF1038
aF1580
aF922
aF-1339
aF-4138
aF-5607
aF-4391
aF-1010
aF2139
aF2988
aF1816
aF-252
aF-2395
aF-3922
aF-4628
aF-3809
aF-1488
aF875
aF2109
aF1822
aF438
aF-1262
aF-2913
aF-4081
aF-4195
aF-2974
aF-835
aF1230
aF2598
aF2795
aF1297
aF-1878
aF-5358
aF-7114
aF-5689
aF-1167
aF3396
aF4989
aF3691
aF411
aF-3608
aF-6733
aF-7787
aF-5770
aF-705
aF3858
aF5199
aF3671
aF-286
aF-4873
aF-7467
aF-7320
aF-4330
aF116
aF3462
aF4373
aF3179
aF469
aF-3037
aF-5759
aF-6888
aF-5943
aF-1614
aF3230
aF5065
aF3979
aF307
aF-3993
aF-6404
aF-6860
aF-4824
aF-496
aF2720
aF4032
aF3841
aF1779
aF-2297
aF-6213
aF-7923
aF-6739
aF-2264
aF2960
aF5359
aF4062
aF241
aF-4011
aF-6820
aF-6983
aF-4150
aF118
aF2893
aF3119
aF1715
aF-381
aF-2530
aF-4365
aF-5194
aF-4127
aF-1281
aF1480
aF2466
aF1771
aF279
aF-1494
aF-3302
aF-4684
aF-4730
aF-2609
aF749
aF2785
aF2475
aF754
aF-1513
aF-3469
aF-4454
aF-4109
aF-2444
aF269
aF2054
aF1849
aF480
aF-877
aF-2288
aF-3574
aF-3913
aF-3237
aF-1197
aF1281
aF2165
aF1057
aF-955
aF-2676
aF-3280
aF-2804
aF-2013
aF-1108
aF-330
aF111
aF537
aF1081
aF77
aF-2315
aF-4356
aF-4907
aF-2826
aF798
aF2905
aF1727
aF-454
aF-2463
aF-3599
aF-3203
aF-1922
aF-408
aF314
aF-148
aF-756
aF-746
aF-284
aF-648
aF-2296
aF-3584
aF-3047
aF-678
aF1523
aF1254
aF-976
aF-2683
aF-2513
aF-1212
aF-416
aF-615
aF-1494
aF-2347
aF-2297
aF-980
aF705
aF1387
aF288
aF-2270
aF-4205
aF-3859
aF-1542
aF751
aF1382
aF665
aF-428
aF-1539
aF-2784
aF-3703
aF-3351
aF-1238
aF1359
aF2296
aF954
aF-1510
aF-3573
aF-4300
aF-3161
aF-670
aF1170
aF1059
aF-246
aF-1333
aF-1525
aF-1400
aF-1950
aF-3165
aF-3546
aF-1666
aF1448
aF2748
aF1202
aF-1803
aF-4078
aF-4307
aF-2642
aF-558
aF812
aF1053
aF218
aF-916
aF-1820
aF-2474
aF-3024
aF-2924
aF-1655
aF299
aF1545
aF1179
aF-657
aF-2787
aF-3754
aF-3060
aF-1405
aF105
aF830
aF483
aF-629
aF-1611
aF-2444
aF-2937
aF-2187
aF-932
aF167
aF531
aF-420
aF-1822
aF-2775
aF-2601
aF-1157
aF252
aF410
aF-613
aF-2040
aF-2709
aF-2242
aF-1255
aF-604
aF-353
aF-407
aF-1012
aF-1633
aF-1665
aF-1641
aF-1585
aF-1277
aF-1055
aF-639
aF-122
aF-365
aF-1164
aF-2074
aF-2814
aF-2758
aF-1796
aF-195
aF1333
aF1711
aF385
aF-2088
aF-4334
aF-4899
aF-3191
aF-52
aF2340
aF2549
aF893
aF-1756
aF-4175
aF-5060
aF-3903
aF-1365
aF1010
aF2041
aF1624
aF201
aF-1757
aF-3812
aF-4873
aF-4070
aF-1547
aF1448
aF2901
aF2044
aF-312
aF-3238
aF-5393
aF-5261
aF-2708
aF619
aF2752
aF2348
aF307
aF-2074
aF-3626
aF-4247
aF-3016
aF-486
aF1110
aF901
aF-620
aF-2125
aF-2243
aF-1049
aF-205
aF-768
aF-1817
aF-2106
aF-1479
aF-831
aF-633
aF-593
aF-603
aF-904
aF-1402
aF-1712
aF-1458
aF-848
aF-1140
aF-2262
aF-2513
aF-881
aF1471
aF1980
aF-184
aF-3282
aF-4856
aF-3945
aF-1310
aF1192
aF2191
aF1455
aF-100
aF-2368
aF-4741
aF-5046
aF-2955
aF-126
aF1648
aF2331
aF2232
aF904
aF-1871
aF-5240
aF-7308
aF-6142
aF-1319
aF3869
aF5496
aF3566
aF-872
aF-5644
aF-8187
aF-7481
aF-3180
aF2269
aF4857
aF4434
aF2127
aF-1754
aF-5517
aF-7695
aF-7448
aF-3349
aF2441
aF5503
aF5227
aF1944
aF-3329
aF-7372
aF-8831
aF-6921
aF-1196
aF4500
aF6260
aF3916
aF-1211
aF-6070
aF-8155
aF-6954
aF-2962
aF1625
aF3775
aF3417
aF1187
aF-1760
aF-4189
aF-5740
aF-5079
aF-2993
aF-274
aF2743
aF4150
aF2765
aF-1464
aF-6041
aF-7720
aF-5112
aF577
aF4554
aF4000
aF152
aF-4173
aF-6111
aF-4511
aF-505
aF2133
aF1344
aF-834
aF-2097
aF-1884
aF-1186
aF-1583
aF-2732
aF-2726
aF-838
aF1322
aF1698
aF197
aF-2425
aF-4597
aF-4670
aF-2123
aF1515
aF3035
aF2064
aF-1003
aF-4435
aF-5900
aF-4597
aF-1244
aF1954
aF3275
aF2363
aF-471
aF-4002
aF-6174
aF-5565
aF-1937
aF2123
aF3281
aF1670
aF-913
aF-3000
aF-3727
aF-3542
aF-3276
aF-2540
aF-330
aF2315
aF3430
aF1682
aF-2574
aF-6341
aF-7015
aF-3864
aF1494
aF4631
aF3573
aF-377
aF-4829
aF-7068
aF-5442
aF-926
aF2532
aF2752
aF439
aF-2252
aF-2992
aF-1994
aF-1412
aF-1878
aF-2542
aF-2098
aF38
aF1759
aF1212
aF-1108
aF-3432
aF-4237
aF-3277
aF-1093
aF1307
aF2243
aF1051
aF-1535
aF-3963
aF-4593
aF-2856
aF27
aF1530
aF957
aF-399
aF-1433
aF-2135
aF-2666
aF-2663
aF-1777
aF-188
aF1129
aF1075
aF-193
aF-1920
aF-3321
aF-3674
aF-2581
aF-463
aF1493
aF1974
aF514
aF-2413
aF-4347
aF-4319
aF-2554
aF165
aF2235
aF2441
aF41
aF-2557
aF-4310
aF-4595
aF-2510
aF361
aF2010
aF1358
aF-808
aF-2625
aF-3220
aF-2705
aF-1814
aF-1098
aF-448
aF507
aF1471
aF904
aF-1615
aF-4412
aF-5458
aF-3332
aF1050
aF3678
aF2833
aF-346
aF-3884
aF-5500
aF-4282
aF-1504
aF1026
aF2054
aF1372
aF-389
aF-2190
aF-3243
aF-3532
aF-3282
aF-2251
aF-156
aF2179
aF2849
aF968
aF-2367
aF-4985
aF-5501
aF-3567
aF-85
aF2634
aF3192
aF1542
aF-1633
aF-4594
aF-5716
aF-3995
aF-165
aF2297
aF1967
aF-173
aF-2354
aF-2729
aF-1831
aF-1140
aF-1226
aF-1907
aF-2094
aF-525
aF1374
aF1549
aF-530
aF-3728
aF-5572
aF-3869
aF443
aF3364
aF2416
aF-1218
aF-4480
aF-4868
aF-2417
aF785
aF2050
aF619
aF-1910
aF-3537
aF-3040
aF-832
aF855
aF213
aF-1893
aF-3005
aF-1816
aF495
aF1070
aF-921
aF-3320
aF-3818
aF-1882
aF920
aF1884
aF70
aF-1930
aF-3024
aF-3114
aF-2119
aF-824
aF123
aF559
aF-49
aF-1340
aF-2161
aF-1990
aF-1371
aF-1188
aF-1690
aF-2134
aF-1562
aF16
aF1330
aF981
aF-1221
aF-4002
aF-5310
aF-4008
aF-571
aF2570
aF3187
aF1400
aF-1637
aF-4347
aF-5313
aF-4036
aF-1457
aF413
aF652
aF299
aF667
aF1287
aF173
aF-3294
aF-6640
aF-6737
aF-2231
aF3650
aF5375
aF2919
aF-1703
aF-5847
aF-7340
aF-5774
aF-1852
aF1861
aF3322
aF2641
aF736
aF-1412
aF-3068
aF-4310
aF-5298
aF-5171
aF-2635
aF1829
aF4968
aF4633
aF882
aF-4452
aF-7961
aF-8165
aF-4529
aF1747
aF5374
aF4788
aF1615
aF-2870
aF-6346
aF-7337
aF-5310
aF-1294
aF2207
aF3660
aF3211
aF1348
aF-1468
aF-4494
aF-6590
aF-6399
aF-3029
aF2067
aF5153
aF4532
aF455
aF-4450
aF-7021
aF-6502
aF-3233
aF927
aF3258
aF2894
aF572
aF-2523
aF-4342
aF-3602
aF-1120
aF391
aF-521
aF-2005
aF-1664
aF217
aF1314
aF435
aF-2268
aF-4578
aF-4202
aF-1160
aF2102
aF2653
aF182
aF-3716
aF-5997
aF-4164
aF862
aF4257
aF3070
aF-1494
aF-5789
aF-6769
aF-3838
aF1323
aF4436
aF3463
aF-64
aF-3841
aF-5850
aF-5471
aF-3060
aF-99
aF1805
aF2475
aF1963
aF424
aF-2027
aF-4999
aF-6589
aF-5001
aF-503
aF3530
aF4267
aF2459
aF-991
aF-4815
aF-7078
aF-6669
aF-2624
aF2614
aF4432
aF3703
aF1812
aF-1808
aF-5627
aF-7257
aF-5893
aF-1112
aF3949
aF4727
aF1648
aF-3290
aF-6795
aF-6304
aF-2259
aF2172
aF3353
aF1447
aF-1027
aF-2757
aF-2982
aF-3062
aF-2088
aF-288
aF457
aF246
aF-332
aF-729
aF-943
aF-2047
aF-3853
aF-4039
aF-1248
aF2784
aF4138
aF1472
aF-3321
aF-7017
aF-7276
aF-2748
aF3443
aF5594
aF3173
aF-1750
aF-6105
aF-7388
aF-4868
aF-151
aF2975
aF3213
aF1764
aF-133
aF-1853
aF-3214
aF-4333
aF-5049
aF-4438
aF-1469
aF3096
aF5497
aF3791
aF-1178
aF-6768
aF-9253
aF-7225
aF-859
aF5058
aF6159
aF3573
aF-1515
aF-6288
aF-8245
aF-6659
aF-1148
aF3859
aF4899
aF3007
aF-704
aF-4485
aF-5891
aF-5490
aF-4062
aF-1408
aF2085
aF4403
aF3805
aF183
aF-4955
aF-8272
aF-7372
aF-1740
aF4360
aF5799
aF2776
aF-2490
aF-6839
aF-7739
aF-4156
aF1744
aF4818
aF3258
aF-1155
aF-4884
aF-5680
aF-3650
aF-876
aF-87
aF-693
aF75
aF1839
aF2195
aF-100
aF-3955
aF-6747
aF-6597
aF-2238
aF3636
aF5992
aF4365
aF-810
aF-6259
aF-8636
aF-6906
aF379
aF6118
aF5983
aF2164
aF-3507
aF-7263
aF-7872
aF-5425
aF-805
aF2821
aF4229
aF4028
aF2121
aF-1554
aF-5547
aF-7976
aF-7764
aF-3261
aF3425
aF6588
aF5476
aF537
aF-5766
aF-9037
aF-8521
aF-3283
aF3866
aF6524
aF4901
aF252
aF-5392
aF-8167
aF-7118
aF-2703
aF1901
aF3517
aF2941
aF1692
aF-61
aF-2540
aF-4966
aF-6214
aF-5409
aF-2094
aF2522
aF5449
aF5008
aF759
aF-5210
aF-8570
aF-7788
aF-1215
aF5662
aF6661
aF2937
aF-3375
aF-7920
aF-8271
aF-4555
aF574
aF3289
aF3215
aF1876
aF138
aF-1662
aF-3626
aF-5491
aF-6162
aF-4051
aF1054
aF5077
aF5044
aF1214
aF-4422
aF-8238
aF-8144
aF-3071
aF3543
aF6065
aF3935
aF-512
aF-4760
aF-6588
aF-5421
aF-2460
aF214
aF1476
aF1693
aF1345
aF431
aF-1182
aF-3081
aF-4434
aF-4459
aF-2957
aF-432
aF2216
aF3588
aF2041
aF-1721
aF-5054
aF-5860
aF-3371
aF565
aF2403
aF616
aF-1615
aF-2526
aF-1698
aF-70
aF575
aF-914
aF-3539
aF-4449
aF-2976
aF415
aF3340
aF3067
aF-263
aF-3979
aF-5565
aF-4170
aF-1298
aF383
aF191
aF-110
aF690
aF1750
aF1393
aF-1606
aF-5712
aF-7887
aF-6015
aF-84
aF5454
aF6107
aF2746
aF-2611
aF-7266
aF-8938
aF-6497
aF-310
aF4798
aF5550
aF2961
aF-1213
aF-4837
aF-6300
aF-5718
aF-3637
aF-906
aF1576
aF3413
aF3580
aF1415
aF-2561
aF-6136
aF-7100
aF-5313
aF-1248
aF3175
aF4537
aF2609
aF-1370
aF-5373
aF-6802
aF-4362
aF-254
aF1837
aF1411
aF-18
aF-849
aF-370
aF-516
aF-1992
aF-3562
aF-4138
aF-2791
aF199
aF2613
aF2906
aF793
aF-2783
aF-5444
aF-5364
aF-2500
aF1272
aF2976
aF1497
aF-1735
aF-4372
aF-4303
aF-1361
aF1770
aF2111
aF-493
aF-3532
aF-4720
aF-2956
aF711
aF2537
aF1197
aF-1316
aF-3045
aF-2958
aF-2055
aF-1151
aF-686
aF-1036
aF-1204
aF-355
aF906
aF1161
aF-308
aF-2860
aF-4719
aF-4078
aF-1095
aF1645
aF1829
aF123
aF-1637
aF-2392
aF-2005
aF-1421
aF-1425
aF-1821
aF-1978
aF-1414
aF-399
aF1187
aF2096
aF503
aF-2836
aF-5563
aF-5750
aF-2688
aF1763
aF4224
aF3146
aF-384
aF-4094
aF-5864
aF-4843
aF-1983
aF459
aF1069
aF737
aF901
aF1408
aF621
aF-2118
aF-5407
aF-7053
aF-5029
aF508
aF4670
aF4882
aF2096
aF-2405
aF-6191
aF-7311
aF-5289
aF-1542
aF1464
aF2723
aF2910
aF2526
aF905
aF-2814
aF-6592
aF-7629
aF-4848
aF919
aF5003
aF4881
aF2112
aF-1960
aF-5702
aF-7610
aF-6836
aF-2851
aF2532
aF5167
aF3748
aF-332
aF-4470
aF-6197
aF-5005
aF-2389
aF-399
aF766
aF1585
aF1650
aF779
aF-837
aF-2902
aF-4743
aF-5147
aF-3251
aF611
aF3719
aF3279
aF-352
aF-4450
aF-6441
aF-3945
aF1520
aF4213
aF2096
aF-2468
aF-6205
aF-6040
aF-897
aF4136
aF4694
aF1511
aF-3304
aF-6781
aF-7098
aF-3836
aF1104
aF3839
aF3301
aF1322
aF-849
aF-2978
aF-4715
aF-5757
aF-5675
aF-2863
aF2333
aF5859
aF5670
aF1446
aF-4877
aF-8588
aF-8435
aF-3961
aF3195
aF6143
aF5010
aF1503
aF-3920
aF-7534
aF-8610
aF-7106
aF-1230
aF4707
aF6311
aF4998
aF1293
aF-3985
aF-7817
aF-8955
aF-7061
aF-1191
aF4754
aF6847
aF5490
aF199
aF-6292
aF-10057
aF-9889
aF-4847
aF3040
aF6602
aF5428
aF1752
aF-3707
aF-7038
aF-7795
aF-5466
aF670
aF5131
aF5294
aF3143
aF-474
aF-4355
aF-7082
aF-7983
aF-5644
aF237
aF5286
aF6193
aF3182
aF-2601
aF-7643
aF-9234
aF-6501
aF-40
aF5227
aF5913
aF2980
aF-2285
aF-6757
aF-8192
aF-6076
aF-730
aF3722
aF4498
aF2839
aF-398
aF-4073
aF-6472
aF-6499
aF-3837
aF533
aF4007
aF4701
aF2447
aF-1998
aF-6186
aF-7707
aF-5352
aF-18
aF4086
aF4334
aF1699
aF-2079
aF-4981
aF-5841
aF-4447
aF-1119
aF2052
aF2661
aF1032
aF-1439
aF-3351
aF-3574
aF-2503
aF-1301
aF-591
aF277
aF865
aF248
aF-1415
aF-3124
aF-3784
aF-2659
aF-159
aF1901
aF2320
aF665
aF-2704
aF-5816
aF-6387
aF-2714
aF3005
aF5482
aF3241
aF-2059
aF-6849
aF-8278
aF-5177
aF658
aF4683
aF4978
aF2643
aF-1234
aF-5178
aF-7550
aF-7285
aF-3634
aF1682
aF5393
aF6109
aF3326
aF-2169
aF-7248
aF-9319
aF-7593
aF-1291
aF5085
aF6642
aF4839
aF-149
aF-6224
aF-9324
aF-8913
aF-4663
aF2283
aF6264
aF5895
aF2623
aF-3047
aF-7696
aF-9312
aF-7491
aF-1778
aF4145
aF6219
aF5084
aF1238
aF-4066
aF-7652
aF-8825
aF-6830
aF-455
aF5153
aF6259
aF4045
aF-1100
aF-6002
aF-8455
aF-7421
aF-1285
aF4912
aF6510
aF4405
aF-612
aF-5635
aF-8187
aF-7874
aF-4187
aF1439
aF4981
aF5052
aF2323
aF-2312
aF-6466
aF-8213
aF-6571
aF-1454
aF3854
aF6020
aF4622
aF-186
aF-5593
aF-8966
aF-8807
aF-3929
aF2990
aF6359
aF5220
aF824
aF-4777
aF-8398
aF-8559
aF-4892
aF1026
aF4965
aF5205
aF2869
aF-1359
aF-5688
aF-8322
aF-8203
aF-3979
aF2591
aF6354
aF5656
aF1662
aF-4016
aF-7709
aF-8177
aF-5082
aF773
aF4994
aF5428
aF2259
aF-2066
aF-5717
aF-6636
aF-4808
aF-2218
aF-704
aF445
aF2665
aF3329
aF1493
aF-2320
aF-5820
aF-7203
aF-5197
aF7
aF4029
aF4193
aF1415
aF-2310
aF-4599
aF-4326
aF-2483
aF-949
aF-635
aF-1031
aF-988
aF-95
aF1011
aF1115
aF-344
aF-2763
aF-4617
aF-4579
aF-2363
aF647
aF2153
aF1696
aF570
aF-341
aF-1491
aF-3377
aF-5180
aF-5233
aF-2503
aF1559
aF3953
aF3473
aF935
aF-2450
aF-5331
aF-6933
aF-6248
aF-2279
aF3147
aF5976
aF4980
aF674
aF-4814
aF-8028
aF-8069
aF-4694
aF1245
aF4935
aF4863
aF2344
aF-1790
aF-5331
aF-6586
aF-5850
aF-3900
aF-1089
aF2026
aF3933
aF3895
aF1398
aF-2973
aF-6625
aF-7702
aF-5233
aF45
aF4199
aF4667
aF2162
aF-1593
aF-4389
aF-4921
aF-3775
aF-2258
aF-1312
aF-115
aF1190
aF1777
aF1714
aF-232
aF-3398
aF-5596
aF-5794
aF-3187
aF1003
aF3654
aF3242
aF527
aF-2577
aF-4187
aF-3971
aF-3049
aF-2498
aF-1755
aF144
aF2073
aF2356
aF786
aF-1704
aF-3585
aF-4286
aF-4294
aF-3477
aF-1233
aF1919
aF3837
aF3048
aF-40
aF-3782
aF-6357
aF-6931
aF-4694
aF-100
aF3980
aF5071
aF3204
aF-984
aF-5378
aF-7813
aF-7414
aF-3555
aF2043
aF5594
aF5652
aF2392
aF-3079
aF-7343
aF-8543
aF-5925
aF267
aF4946
aF5671
aF3551
aF-891
aF-5529
aF-7666
aF-6684
aF-2928
aF1492
aF3411
aF3157
aF1795
aF-814
aF-3896
aF-6028
aF-6090
aF-3481
aF549
aF3153
aF3355
aF1740
aF-1035
aF-4081
aF-6113
aF-5836
aF-2424
aF2075
aF4054
aF2881
aF-169
aF-3792
aF-6014
aF-5417
aF-2556
aF958
aF3152
aF2601
aF203
aF-2304
aF-4099
aF-4484
aF-3431
aF-1566
aF539
aF2226
aF1919
aF-671
aF-3870
aF-5662
aF-4265
aF1
aF3298
aF3079
aF-25
aF-3901
aF-5754
aF-4117
aF-393
aF2460
aF2435
aF-5
aF-2744
aF-4288
aF-3911
aF-1821
aF766
aF1657
aF641
aF-1233
aF-3158
aF-3598
aF-2241
aF-469
aF647
aF715
aF-227
aF-1313
aF-2043
aF-2580
aF-2832
aF-2573
aF-1391
aF610
aF2188
aF1988
aF-503
aF-3991
aF-5940
aF-4867
aF-1152
aF2538
aF3514
aF1550
aF-1739
aF-4217
aF-4905
aF-4145
aF-1592
aF1385
aF2654
aF2225
aF393
aF-2271
aF-4559
aF-5514
aF-4418
aF-1166
aF2450
aF4045
aF3007
aF-122
aF-3869
aF-6759
aF-7594
aF-5078
aF527
aF5277
aF5861
aF2536
aF-3102
aF-7117
aF-7905
aF-6026
aF-420
aF4617
aF5758
aF4299
aF-261
aF-5613
aF-8554
aF-8478
aF-3598
aF3494
aF6433
aF5717
aF2347
aF-3401
aF-7748
aF-9360
aF-7408
aF-497
aF5816
aF7341
aF5161
aF-459
aF-6570
aF-9622
aF-9365
aF-4933
aF2734
aF6391
aF5831
aF2528
aF-3332
aF-7488
aF-9420
aF-8188
aF-1628
aF5327
aF7560
aF5985
aF1350
aF-5004
aF-8982
aF-9702
aF-6632
aF1320
aF7094
aF7284
aF4093
aF-2333
aF-7756
aF-9092
aF-7476
aF-2113
aF3933
aF6237
aF5440
aF1976
aF-3304
aF-7344
aF-8591
aF-6982
aF-2211
aF3151
aF5494
aF4996
aF1512
aF-3863
aF-8075
aF-8636
aF-4857
aF836
aF4240
aF4303
aF2243
aF-854
aF-3740
aF-5532
aF-5600
aF-3681
aF-759
aF1623
aF2342
aF1396
aF-349
aF-2049
aF-3155
aF-3360
aF-2683
aF-1746
aF-853
aF-89
aF331
aF466
aF298
aF-413
aF-1679
aF-2925
aF-3642
aF-3563
aF-2271
aF-288
aF1268
aF2443
aF2137
aF87
aF-3051
aF-5938
aF-6973
aF-4467
aF1871
aF6005
aF5373
aF1297
aF-4274
aF-8027
aF-8626
aF-6139
aF-735
aF4236
aF5704
aF4287
aF228
aF-4845
aF-8209
aF-8802
aF-6013
aF-108
aF4865
aF6177
aF4397
aF-430
aF-6204
aF-9528
aF-9051
aF-4257
aF2718
aF6285
aF5433
aF1949
aF-3096
aF-7188
aF-8764
aF-7472
aF-3334
aF2161
aF5224
aF5080
aF2518
aF-2297
aF-6702
aF-8475
aF-7040
aF-1899
aF3855
aF6074
aF4598
aF116
aF-5281
aF-8280
aF-7360
aF-2684
aF2386
aF4075
aF2526
aF63
aF-2135
aF-3896
aF-4560
aF-3619
aF-1324
aF814
aF1360
aF298
aF-1131
aF-1926
aF-2058
aF-1825
aF-1466
aF-799
aF-159
aF-493
aF-2274
aF-3206
aF-1940
aF318
aF1822
aF1300
aF-784
aF-3171
aF-4415
aF-3829
aF-1741
aF1032
aF2859
aF2091
aF-681
aF-3605
aF-5286
aF-4507
aF-1879
aF679
aF1613
aF1377
aF692
aF-396
aF-1972
aF-3967
aF-5577
aF-5068
aF-1502
aF3224
aF5507
aF3668
aF-1437
aF-6502
aF-8472
aF-6304
aF-577
aF4236
aF4991
aF2963
aF-968
aF-5126
aF-7377
aF-6509
aF-2581
aF1635
aF3449
aF2982
aF1139
aF-1450
aF-3978
aF-5815
aF-5897
aF-3143
aF1255
aF4095
aF3954
aF1244
aF-3011
aF-6554
aF-7583
aF-4694
aF1242
aF5140
aF4468
aF294
aF-4665
aF-7162
aF-5644
aF-961
aF2428
aF2322
aF607
aF-999
aF-1746
aF-2128
aF-2730
aF-3023
aF-2545
aF-1132
aF1160
aF2351
aF1077
aF-1875
aF-4684
aF-5582
aF-3519
aF613
aF3542
aF3170
aF170
aF-3555
aF-5975
aF-5678
aF-2443
aF1550
aF3260
aF2007
aF-816
aF-3042
aF-3562
aF-3376
aF-2553
aF-1433
aF-319
aF951
aF1496
aF263
aF-1119
aF-2809
aF-4488
aF-4466
aF-2071
aF1516
aF3516
aF2410
aF-1053
aF-4585
aF-5817
aF-4032
aF-317
aF2355
aF1918
aF-303
aF-2103
aF-2880
aF-2245
aF-1061
aF-918
aF-1714
aF-2259
aF-1850
aF-630
aF1281
aF1639
aF-274
aF-2604
aF-4061
aF-3825
aF-2091
aF-576
aF-215
aF-377
aF-176
aF463
aF532
aF-1026
aF-3658
aF-5449
aF-4616
aF-1312
aF2346
aF4057
aF3163
aF-61
aF-4297
aF-7354
aF-7623
aF-3894
aF2105
aF5232
aF4451
aF1131
aF-3081
aF-6096
aF-7421
aF-6809
aF-3739
aF906
aF4701
aF6018
aF4327
aF-475
aF-6062
aF-8603
aF-8366
aF-4118
aF3444
aF6723
aF6169
aF1982
aF-4891
aF-8600
aF-9379
aF-6263
aF1667
aF6793
aF6838
aF4460
aF-855
aF-6485
aF-9157
aF-9330
aF-6137
aF806
aF5978
aF6884
aF5204
aF-99
aF-6087
aF-8549
aF-8805
aF-4921
aF3062
aF6889
aF6250
aF2585
aF-3851
aF-8087
aF-9123
aF-6646
aF-606
aF4048
aF5387
aF5115
aF3178
aF-929
aF-5696
aF-8736
aF-8781
aF-4380
aF2474
aF6313
aF6388
aF3161
aF-3214
aF-8459
aF-10099
aF-7061
aF14
aF5362
aF5412
aF2074
aF-1783
aF-4191
aF-4842
aF-4425
aF-3533
aF-2130
aF-403
aF1062
aF1835
aF1731
aF831
aF-1027
aF-3698
aF-5664
aF-5290
aF-2618
aF838
aF3116
aF2770
aF782
aF-1587
aF-3480
aF-4728
aF-4897
aF-4075
aF-2045
aF1285
aF3975
aF4227
aF1694
aF-2884
aF-6962
aF-8284
aF-5876
aF-274
aF4376
aF5098
aF2894
aF-1338
aF-5432
aF-7097
aF-6257
aF-3695
aF-287
aF2511
aF3774
aF3813
aF2003
aF-2375
aF-7284
aF-9507
aF-7158
aF-580
aF5405
aF6277
aF3395
aF-1281
aF-6093
aF-8596
aF-7720
aF-2758
aF3422
aF5828
aF4186
aF368
aF-3909
aF-6435
aF-6557
aF-4845
aF-1835
aF1520
aF3897
aF4221
aF1839
aF-2818
aF-6970
aF-8113
aF-5054
aF1280
aF5413
aF4653
aF438
aF-4714
aF-7426
aF-6366
aF-1895
aF2521
aF3326
aF1201
aF-1638
aF-3154
aF-2785
aF-1808
aF-1435
aF-1767
aF-1646
aF-248
aF1124
aF1117
aF-796
aF-3932
aF-5106
aF-3076
aF525
aF2757
aF2343
aF-171
aF-3643
aF-5478
aF-4716
aF-1603
aF2028
aF3417
aF1387
aF-2228
aF-4549
aF-4705
aF-3054
aF-603
aF1014
aF1078
aF89
aF-1065
aF-1575
aF-1660
aF-2142
aF-3137
aF-3388
aF-1737
aF1228
aF3100
aF1857
aF-1803
aF-5248
aF-6134
aF-3735
aF903
aF3833
aF2750
aF-693
aF-3905
aF-4923
aF-3367
aF-405
aF1340
aF260
aF-1758
aF-2441
aF-1713
aF-27
aF760
aF-936
aF-3317
aF-4057
aF-2313
aF652
aF2557
aF1693
aF-1541
aF-4474
aF-4740
aF-1792
aF1735
aF2416
aF127
aF-2881
aF-4257
aF-2896
aF15
aF1473
aF656
aF-1103
aF-2618
aF-3141
aF-2303
aF-576
aF841
aF913
aF-313
aF-1831
aF-2569
aF-2287
aF-1806
aF-1717
aF-1840
aF-1072
aF1055
aF2505
aF1344
aF-2010
aF-5199
aF-6411
aF-4099
aF1339
aF4784
aF4008
aF138
aF-4660
aF-7404
aF-6469
aF-2187
aF2466
aF4025
aF2383
aF-675
aF-3297
aF-4144
aF-3361
aF-2187
aF-1617
aF-1345
aF-161
aF1895
aF2781
aF1151
aF-2524
aF-6347
aF-7571
aF-4692
aF1031
aF4960
aF4676
aF1381
aF-3239
aF-6609
aF-6903
aF-3879
aF474
aF2509
aF1456
aF-12
aF-133
aF101
aF-969
aF-3770
aF-5842
aF-5416
aF-1496
aF3515
aF4798
aF2495
aF-1887
aF-6037
aF-7663
aF-5433
aF-329
aF3755
aF3918
aF786
aF-2579
aF-3737
aF-2429
aF-611
aF-983
aF-3296
aF-4773
aF-3057
aF1553
aF4980
aF4408
aF183
aF-5275
aF-8593
aF-8160
aF-3361
aF3050
aF5633
aF4335
aF720
aF-3701
aF-6591
aF-7035
aF-4962
aF-2039
aF497
aF2840
aF4295
aF4312
aF1662
aF-3623
aF-7850
aF-9061
aF-5696
aF2259
aF7117
aF6571
aF2400
aF-4000
aF-7713
aF-8299
aF-5621
aF736
aF4851
aF4935
aF3468
aF1166
aF-1720
aF-4674
aF-7158
aF-8248
aF-5964
aF159
aF5580
aF7044
aF4825
aF-1167
aF-6535
aF-7758
aF-6669
aF-916
aF5348
aF6258
aF3933
aF-909
aF-5822
aF-7916
aF-7002
aF-3908
aF-621
aF1275
aF2330
aF3082
aF2840
aF994
aF-3215
aF-7747
aF-8961
aF-5125
aF2265
aF6416
aF4652
aF57
aF-4652
aF-6587
aF-5095
aF-2165
aF-328
aF-491
aF-1128
aF-495
aF1402
aF2703
aF1483
aF-2186
aF-5885
aF-7266
aF-4728
aF738
aF4536
aF4344
aF1661
aF-1988
aF-4746
aF-5302
aF-4265
aF-3045
aF-1424
aF183
aF1669
aF3176
aF3410
aF572
aF-4062
aF-7779
aF-8495
aF-4709
aF2071
aF6129
aF5472
aF1663
aF-3905
aF-7904
aF-8425
aF-5059
aF734
aF4188
aF3949
aF2217
aF279
aF-1619
aF-3853
aF-6307
aF-7228
aF-4646
aF1049
aF5406
aF5834
aF2657
aF-2998
aF-7622
aF-8981
aF-6035
aF1001
aF5851
aF5335
aF1225
aF-4040
aF-6840
aF-5907
aF-2516
aF465
aF989
aF210
aF-76
aF282
aF314
aF-949
aF-3108
aF-4438
aF-3922
aF-1469
aF1928
aF3288
aF1094
aF-2816
aF-5501
aF-5042
aF-1217
aF2738
aF3121
aF213
aF-3377
aF-4970
aF-3443
aF-1452
aF-755
aF542
aF2531
aF2814
aF114
aF-4245
aF-7118
aF-6300
aF-1034
aF4570
aF5822
aF2723
aF-3082
aF-7704
aF-8531
aF-5156
aF1014
aF4765
aF4296
aF1667
aF-1707
aF-4707
aF-5606
aF-4840
aF-3707
aF-2085
aF726
aF3908
aF4928
aF2375
aF-2979
aF-7649
aF-8970
aF-5287
aF2123
aF6378
aF5667
aF1505
aF-4211
aF-7781
aF-7775
aF-3941
aF1099
aF3316
aF2835
aF1731
aF519
aF-1123
aF-3285
aF-5368
aF-6267
aF-4305
aF256
aF4054
aF4979
aF2977
aF-1684
aF-6462
aF-8612
aF-6593
aF-345
aF5016
aF5326
aF1730
aF-3218
aF-6306
aF-5679
aF-2120
aF1233
aF1552
aF-349
aF-2170
aF-2487
aF-506
aF961
aF-313
aF-2823
aF-4145
aF-2752
aF-14
aF2088
aF1270
aF-1632
aF-3481
aF-2915
aF-724
aF677
aF99
aF-2036
aF-3904
aF-3553
aF-600
aF2544
aF2787
aF-114
aF-3996
aF-6414
aF-5545
aF-1388
aF2705
aF3798
aF2229
aF-859
aF-3840
aF-5240
aF-4819
aF-2894
aF-169
aF1588
aF1902
aF1430
aF331
aF-1628
aF-4016
aF-5565
aF-5080
aF-1963
aF2235
aF4479
aF3586
aF-178
aF-4859
aF-7604
aF-6945
aF-2717
aF2281
aF4246
aF3165
aF662
aF-2145
aF-4250
aF-5412
aF-5572
aF-4011
aF-475
aF3197
aF4522
aF3068
aF-800
aF-5356
aF-7947
aF-7335
aF-2880
aF2892
aF5566
aF4614
aF976
aF-3919
aF-7198
aF-7535
aF-4816
aF270
aF4018
aF4259
aF2009
aF-1270
aF-4030
aF-5518
aF-5380
aF-3844
aF-1345
aF1582
aF3766
aF4132
aF1623
aF-2934
aF-6722
aF-7879
aF-5292
aF264
aF4402
aF4368
aF871
aF-2782
aF-4416
aF-3951
aF-2679
aF-2183
aF-2154
aF-1857
aF612
aF3057
aF2913
aF358
aF-3329
aF-6061
aF-6363
aF-3355
aF1193
aF3957
aF3505
aF258
aF-3047
aF-4230
aF-3560
aF-2378
aF-1934
aF-2091
aF-1046
aF1099
aF2703
aF2535
aF-45
aF-3946
aF-6684
aF-6792
aF-3594
aF1604
aF4611
aF3883
aF575
aF-3269
aF-5446
aF-5226
aF-3632
aF-2227
aF-1161
aF486
aF2545
aF3576
aF2365
aF-1188
aF-5301
aF-7761
aF-7018
aF-2076
aF3732
aF6055
aF4512
aF183
aF-4496
aF-7280
aF-7531
aF-5430
aF-1637
aF1913
aF4025
aF4199
aF2200
aF-1347
aF-5031
aF-7277
aF-7557
aF-4450
aF1567
aF5474
aF5645
aF2697
aF-2585
aF-7040
aF-8530
aF-7037
aF-2775
aF2241
aF4468
aF4055
aF1855
aF-1573
aF-4963
aF-6835
aF-6816
aF-5259
aF-1647
aF2912
aF5376
aF4783
aF1364
aF-4043
aF-8401
aF-9340
aF-6109
aF525
aF5452
aF5814
aF3039
aF-1765
aF-5880
aF-7271
aF-6469
aF-4420
aF-1433
aF2020
aF4423
aF4513
aF1725
aF-2968
aF-6852
aF-8313
aF-6338
aF-774
aF4152
aF5114
aF3033
aF-991
aF-4926
aF-6600
aF-5729
aF-3582
aF-1257
aF877
aF2357
aF2725
aF1501
aF-971
aF-3375
aF-4990
aF-5463
aF-3962
aF-581
aF2770
aF4066
aF2354
aF-1754
aF-5233
aF-5712
aF-3270
aF-39
aF1129
aF-263
aF-2142
aF-2341
aF-264
aF2264
aF2395
aF-751
aF-5008
aF-7266
aF-5339
aF294
aF4547
aF4444
aF1214
aF-2930
aF-5517
aF-5805
aF-4491
aF-2395
aF-70
aF1872
aF3105
aF3036
aF1158
aF-2263
aF-5695
aF-7458
aF-6355
aF-1780
aF3375
aF5285
aF4006
aF469
aF-3937
aF-7022
aF-7887
aF-5685
aF-630
aF3727
aF4928
aF3757
aF461
aF-3607
aF-6174
aF-7088
aF-5944
aF-2547
aF1787
aF4296
aF4530
aF2556
aF-1537
aF-5773
aF-8136
aF-7349
aF-1870
aF4260
aF6216
aF4267
aF-538
aF-5264
aF-7075
aF-6288
aF-3592
aF-294
aF2032
aF2833
aF2063
aF450
aF-1428
aF-3380
aF-4811
aF-4911
aF-3273
aF-238
aF2481
aF3307
aF1933
aF-1003
aF-4051
aF-5585
aF-4705
aF-1774
aF1108
aF1760
aF555
aF-578
aF-457
aF85
aF-782
aF-3244
aF-5318
aF-5054
aF-1753
aF2596
aF4253
aF2558
aF-954
aF-4367
aF-5516
aF-4713
aF-2127
aF572
aF1209
aF1050
aF1484
aF1730
aF82
aF-3410
aF-6276
aF-6764
aF-3419
aF2252
aF5294
aF4713
aF1200
aF-3838
aF-7474
aF-8122
aF-5049
aF748
aF4580
aF4435
aF1993
aF-1598
aF-4630
aF-6001
aF-5512
aF-3822
aF-920
aF2380
aF3771
aF3314
aF944
aF-3070
aF-6893
aF-8326
aF-5697
aF548
aF5353
aF5388
aF1829
aF-3463
aF-7048
aF-7440
aF-5153
aF-1082
aF2737
aF4415
aF3639
aF760
aF-3164
aF-6235
aF-7098
aF-5369
aF-1210
aF3128
aF4721
aF3258
aF-536
aF-4934
aF-7462
aF-6640
aF-2848
aF1498
aF3899
aF3595
aF1464
aF-1803
aF-5026
aF-6421
aF-4833
aF-787
aF2605
aF3145
aF1370
aF-1391
aF-3625
aF-4352
aF-3497
aF-1854
aF-447
aF593
aF1342
aF931
aF-777
aF-2755
aF-4350
aF-4221
aF-1772
aF1259
aF2446
aF1033
aF-1768
aF-3963
aF-4107
aF-2068
aF684
aF2015
aF1094
aF-1565
aF-4000
aF-4222
aF-2331
aF234
aF1699
aF1541
aF190
aF-1633
aF-3167
aF-4213
aF-4262
aF-2378
aF915
aF3418
aF3356
aF773
aF-2960
aF-6109
aF-7125
aF-5059
aF-437
aF3712
aF4593
aF2977
aF-472
aF-4469
aF-6951
aF-6978
aF-4366
aF388
aF4429
aF5242
aF3294
aF-809
aF-5404
aF-8134
aF-8196
aF-4726
aF1607
aF5751
aF6124
aF3279
aF-2568
aF-7857
aF-9983
aF-8107
aF-2121
aF4244
aF6641
aF5353
aF1484
aF-3757
aF-7728
aF-9074
aF-7220
aF-2053
aF3524
aF6025
aF5438
aF2135
aF-3181
aF-7609
aF-9246
aF-6949
aF-1018
aF4315
aF5982
aF4633
aF800
aF-4000
aF-7414
aF-8362
aF-6265
aF-1280
aF3562
aF5240
aF4151
aF974
aF-3476
aF-6941
aF-7875
aF-5527
aF-804
aF3357
aF4154
aF2616
aF289
aF-2579
aF-4566
aF-5138
aF-4309
aF-2270
aF16
aF1648
aF2200
aF1546
aF3
aF-1751
aF-3171
aF-3900
aF-3990
aF-3704
aF-2091
aF997
aF3502
aF3837
aF2026
aF-2207
aF-6757
aF-7985
aF-5272
aF238
aF4162
aF4621
aF1984
aF-1397
aF-4205
aF-5653
aF-5062
aF-3084
aF-1257
aF101
aF2135
aF3345
aF2506
aF-342
aF-4137
aF-6948
aF-7193
aF-4108
aF1003
aF4777
aF5273
aF2604
aF-2201
aF-6439
aF-8023
aF-6435
aF-2615
aF1500
aF4016
aF4465
aF2968
aF-720
aF-5199
aF-8182
aF-7738
aF-2989
aF2975
aF5537
aF4155
aF512
aF-3597
aF-5777
aF-5544
aF-3727
aF-1081
aF955
aF1800
aF1911
aF1166
aF-535
aF-2682
aF-4026
aF-4056
aF-3052
aF-1366
aF250
aF1230
aF1492
aF776
aF-803
aF-2626
aF-3738
aF-3783
aF-2791
aF-994
aF746
aF1380
aF700
aF-540
aF-1577
aF-2372
aF-3160
aF-3781
aF-3495
aF-1414
aF1605
aF3091
aF1975
aF-657
aF-3035
aF-4167
aF-4399
aF-4012
aF-2634
aF-60
aF2668
aF3714
aF2435
aF-723
aF-4398
aF-6849
aF-7096
aF-4518
aF560
aF4624
aF5324
aF3319
aF-1148
aF-6108
aF-8820
aF-8357
aF-4221
aF2268
aF6111
aF5544
aF1824
aF-3698
aF-7543
aF-8372
aF-6301
aF-1161
aF3623
aF5233
aF4452
aF1540
aF-2856
aF-6624
aF-8404
aF-7381
aF-3027
aF2754
aF5892
aF5508
aF2006
aF-3523
aF-7667
aF-8744
aF-6357
aF-1127
aF3639
aF5380
aF4592
aF1749
aF-2727
aF-6631
aF-8126
aF-6766
aF-2588
aF2588
aF5334
aF5060
aF2001
aF-3206
aF-7431
aF-8796
aF-6283
aF43
aF5181
aF5618
aF2914
aF-1772
aF-6076
aF-7528
aF-5941
aF-2201
aF1531
aF3153
aF3006
aF1950
aF-123
aF-3002
aF-5367
aF-5850
aF-4083
aF-846
aF1999
aF3142
aF2342
aF-69
aF-2855
aF-4830
aF-5126
aF-2852
aF260
aF1911
aF1852
aF581
aF-1558
aF-3354
aF-3689
aF-2455
aF-390
aF835
aF77
aF-1866
aF-2613
aF-1256
aF338
aF257
aF-1142
aF-2334
as.