(dp1
S'peak2peak'
p2
F0.0031033967134621284
sS'samples'
p3
(lp4
F-3029
aF-3945
aF-4794
aF-4169
aF-1986
aF565
aF2305
aF2667
aF1437
aF-1433
aF-5195
aF-7723
aF-6630
aF-1523
aF3388
aF4840
aF2837
aF-1827
aF-6563
aF-8560
aF-7022
aF-2256
aF2439
aF3947
aF3129
aF487
aF-2890
aF-5922
aF-7842
aF-7379
aF-3610
aF1926
aF4987
aF4399
aF464
aF-5198
aF-9008
aF-8516
aF-4092
aF1365
aF3597
aF2547
aF304
aF-1852
aF-2806
aF-2921
aF-3605
aF-5103
aF-5262
aF-1979
aF2802
aF5055
aF3528
aF-1794
aF-7826
aF-10058
aF-7526
aF-492
aF5094
aF5648
aF2705
aF-3305
aF-8517
aF-9609
aF-6501
aF-959
aF2693
aF3232
aF2508
aF1359
aF-557
aF-3595
aF-7138
aF-8908
aF-6670
aF-471
aF4531
aF5310
aF3023
aF-2464
aF-7827
aF-9673
aF-7883
aF-2005
aF3482
aF4721
aF3461
aF-308
aF-5037
aF-7927
aF-8212
aF-5524
aF-850
aF2633
aF3851
aF3436
aF1414
aF-2120
aF-6221
aF-8855
aF-8456
aF-3790
aF2623
aF5031
aF4085
aF-393
aF-6302
aF-9371
aF-8720
aF-3178
aF3307
aF5416
aF4133
aF411
aF-4096
aF-6919
aF-7087
aF-4892
aF-1709
aF493
aF1612
aF2155
aF1866
aF395
aF-2143
aF-5227
aF-7438
aF-6837
aF-2109
aF3227
aF5171
aF3342
aF-2394
aF-7809
aF-9125
aF-5510
aF1511
aF4650
aF3809
aF-144
aF-5520
aF-8186
aF-6893
aF-2306
aF1615
aF2396
aF1297
aF-76
aF-1171
aF-2291
aF-3824
aF-4881
aF-3852
aF-414
aF2708
aF2805
aF133
aF-3749
aF-6165
aF-5098
aF-1127
aF1698
aF1231
aF-1036
aF-2890
aF-2263
aF90
aF609
aF-2089
aF-5609
aF-6198
aF-1692
aF3564
aF4419
aF1032
aF-4833
aF-8780
aF-7830
aF-2044
aF3730
aF4338
aF943
aF-4632
aF-8289
aF-6945
aF-1029
aF3806
aF3333
aF-645
aF-5086
aF-6487
aF-3425
aF871
aF2142
aF211
aF-2677
aF-4472
aF-3579
aF-689
aF1106
aF811
aF-685
aF-2317
aF-3066
aF-2638
aF-1621
aF-706
aF-259
aF-52
aF94
aF-337
aF-1078
aF-2024
aF-2915
aF-2734
aF-1652
aF-222
aF734
aF578
aF-397
aF-1054
aF-1451
aF-2186
aF-3127
aF-3599
aF-2391
aF68
aF1989
aF2260
aF726
aF-2308
aF-5497
aF-6964
aF-5519
aF-1079
aF3028
aF3699
aF1922
aF-1734
aF-5678
aF-7850
aF-7226
aF-3408
aF1769
aF4468
aF3717
aF300
aF-4470
aF-7925
aF-8052
aF-4573
aF674
aF3713
aF3311
aF787
aF-2527
aF-4960
aF-5391
aF-4240
aF-2727
aF-1453
aF363
aF2716
aF3774
aF1408
aF-3300
aF-7567
aF-8603
aF-5597
aF412
aF4727
aF5174
aF2306
aF-3474
aF-8423
aF-9316
aF-6194
aF195
aF4399
aF4499
aF2262
aF-1893
aF-6362
aF-8854
aF-7980
aF-3429
aF2187
aF4419
aF3591
aF529
aF-4037
aF-7957
aF-9302
aF-6825
aF-423
aF4687
aF5263
aF1890
aF-4408
aF-8943
aF-8473
aF-3283
aF2236
aF3342
aF1209
aF-1415
aF-2694
aF-2268
aF-1383
aF-1391
aF-2791
aF-4359
aF-3442
aF851
aF4391
aF3809
aF-1023
aF-6941
aF-9466
aF-6299
aF1249
aF5406
aF4818
aF-106
aF-6639
aF-9792
aF-7955
aF-1538
aF3883
aF3961
aF653
aF-3337
aF-4978
aF-2983
aF-129
aF-152
aF-2418
aF-4316
aF-3834
aF-712
aF1890
aF2226
aF1029
aF-1465
aF-4550
aF-6717
aF-6007
aF-2056
aF2217
aF3833
aF2818
aF-558
aF-4870
aF-7994
aF-8254
aF-4551
aF1101
aF4269
aF3940
aF1337
aF-2807
aF-6691
aF-8403
aF-6783
aF-1802
aF3031
aF4963
aF3848
aF141
aF-4567
aF-7718
aF-7841
aF-5218
aF-1180
aF2085
aF3510
aF3331
aF1439
aF-2008
aF-5961
aF-8678
aF-8554
aF-4460
aF2075
aF5728
aF5409
aF1681
aF-4703
aF-8936
aF-9632
aF-6692
aF672
aF5660
aF6599
aF3634
aF-3572
aF-9517
aF-10284
aF-6783
aF33
aF4550
aF4531
aF2516
aF-649
aF-3987
aF-6496
aF-7508
aF-6761
aF-3701
aF969
aF4129
aF4527
aF2381
aF-2677
aF-7879
aF-9533
aF-7275
aF-921
aF4278
aF4893
aF3063
aF-1726
aF-6860
aF-9318
aF-8681
aF-3951
aF2026
aF4769
aF4964
aF2770
aF-1770
aF-6766
aF-9825
aF-9426
aF-4312
aF2734
aF5291
aF4186
aF-829
aF-6762
aF-8954
aF-7092
aF-595
aF4512
aF4313
aF931
aF-3878
aF-6679
aF-5684
aF-2211
aF90
aF-497
aF-1679
aF-1075
aF1081
aF2029
aF101
aF-3895
aF-7100
aF-6779
aF-2151
aF3016
aF4460
aF2622
aF-2236
aF-7243
aF-8655
aF-5681
aF768
aF4058
aF3113
aF-507
aF-4761
aF-6576
aF-5207
aF-2307
aF-6
aF1369
aF1780
aF777
aF-1427
aF-3662
aF-4800
aF-4099
aF-1864
aF736
aF2187
aF1540
aF-1025
aF-4219
aF-5444
aF-2965
aF976
aF1870
aF-729
aF-4013
aF-4739
aF-1547
aF2316
aF3173
aF547
aF-4042
aF-7697
aF-7716
aF-2908
aF2922
aF4700
aF2519
aF-2715
aF-7522
aF-8410
aF-4710
aF1075
aF3668
aF2621
aF-246
aF-3407
aF-5184
aF-4692
aF-2481
aF-391
aF127
aF-416
aF-629
aF-62
aF638
aF466
aF-1015
aF-3399
aF-5510
aF-5866
aF-3227
aF1219
aF3965
aF3669
aF287
aF-4926
aF-8554
aF-8025
aF-3191
aF2488
aF4312
aF2521
aF-1640
aF-5849
aF-6706
aF-3294
aF706
aF1263
aF-1168
aF-3289
aF-2361
aF784
aF2500
aF704
aF-3541
aF-6909
aF-6299
aF-1652
aF2693
aF3232
aF1125
aF-1929
aF-4247
aF-4850
aF-4345
aF-3828
aF-3036
aF-682
aF2717
aF4484
aF3310
aF-1313
aF-7068
aF-9733
aF-7721
aF-352
aF5269
aF5591
aF1556
aF-5252
aF-9663
aF-8677
aF-2760
aF3128
aF4022
aF1385
aF-2096
aF-4236
aF-3945
aF-2000
aF-525
aF-1160
aF-2700
aF-2996
aF-712
aF2632
aF3269
aF-110
aF-5192
aF-8316
aF-6805
aF-1381
aF3550
aF3986
aF1329
aF-2638
aF-6169
aF-7312
aF-4850
aF-427
aF2437
aF2497
aF712
aF-1832
aF-4062
aF-4731
aF-3414
aF-914
aF1322
aF1974
aF781
aF-1468
aF-3498
aF-4310
aF-3655
aF-1860
aF70
aF1078
aF968
aF-391
aF-2372
aF-3474
aF-2810
aF-1167
aF-112
aF-349
aF-1158
aF-1441
aF-910
aF83
aF513
aF-639
aF-3195
aF-5578
aF-5409
aF-1290
aF3237
aF4372
aF1341
aF-4364
aF-8981
aF-9152
aF-3651
aF3067
aF5338
aF3619
aF-1077
aF-6384
aF-8902
aF-7253
aF-1869
aF2765
aF3553
aF1726
aF-1042
aF-3217
aF-3946
aF-3571
aF-2697
aF-1840
aF-1116
aF-304
aF865
aF1714
aF1382
aF-673
aF-4071
aF-6946
aF-6976
aF-3146
aF1916
aF4242
aF3512
aF238
aF-4267
aF-7396
aF-7722
aF-4840
aF-607
aF2183
aF3073
aF2508
aF861
aF-1717
aF-4879
aF-7307
aF-7312
aF-3928
aF1212
aF4275
aF4006
aF1145
aF-3153
aF-6595
aF-7559
aF-5952
aF-2669
aF548
aF2657
aF3743
aF3318
aF475
aF-4625
aF-9161
aF-10021
aF-6300
aF1591
aF5662
aF4946
aF855
aF-5441
aF-6457
aF-6294
aF-2257
aF3471
aF4340
aF3513
aF-1524
aF-7257
aF-9343
aF-8232
aF-3755
aF1078
aF3399
aF3977
aF3429
aF1205
aF-3194
aF-7897
aF-9552
aF-6876
aF-10
aF5000
aF5308
aF1947
aF-4490
aF-9236
aF-9532
aF-5043
aF1627
aF4593
aF3591
aF790
aF-2581
aF-5101
aF-6291
aF-5982
aF-3539
aF407
aF3435
aF3998
aF1798
aF-2581
aF-6944
aF-8584
aF-6414
aF-652
aF3986
aF4720
aF1968
aF-4170
aF-8982
aF-9103
aF-3762
aF3424
aF5399
aF2979
aF-1771
aF-6408
aF-7863
aF-5518
aF-829
aF2103
aF1628
aF-396
aF-1811
aF-1389
aF-506
aF-1210
aF-3321
aF-4649
aF-3255
aF164
aF2627
aF2444
aF756
aF-1868
aF-4779
aF-6460
aF-5920
aF-1945
aF2395
aF4077
aF3148
aF-588
aF-5548
aF-8466
aF-7579
aF-2741
aF2582
aF4092
aF2167
aF-1738
aF-4726
aF-4974
aF-3321
aF-2125
aF-2024
aF-1464
aF394
aF2251
aF2157
aF-341
aF-3823
aF-6276
aF-5675
aF-1872
aF1721
aF2229
aF155
aF-2773
aF-3772
aF-1620
aF613
aF-370
aF-3699
aF-5829
aF-3598
aF1450
aF4078
aF2542
aF-1746
aF-5963
aF-7179
aF-4561
aF-202
aF2371
aF1616
aF-809
aF-2707
aF-2572
aF-678
aF90
aF-1849
aF-4959
aF-5888
aF-2373
aF2713
aF4701
aF2945
aF-1909
aF-7029
aF-9187
aF-7423
aF-1412
aF3970
aF5220
aF3529
aF-1444
aF-7132
aF-9672
aF-8548
aF-3379
aF3110
aF5620
aF4524
aF244
aF-5711
aF-9417
aF-8649
aF-4174
aF1078
aF3456
aF3109
aF1302
aF-1335
aF-4054
aF-6155
aF-6559
aF-3969
aF570
aF3283
aF2990
aF185
aF-3835
aF-6296
aF-5254
aF-1731
aF858
aF808
aF-688
aF-1732
aF-1227
aF-63
aF-205
aF-1960
aF-3520
aF-2934
aF-377
aF1520
aF733
aF-1968
aF-4219
aF-4032
aF-1187
aF1691
aF2108
aF-11
aF-3433
aF-5970
aF-5352
aF-1134
aF2838
aF3312
aF422
aF-4094
aF-7166
aF-6240
aF-1520
aF2821
aF3709
aF1415
aF-2815
aF-6571
aF-7146
aF-3603
aF1168
aF3083
aF1759
aF-1038
aF-3357
aF-3867
aF-3019
aF-1836
aF-765
aF115
aF458
aF-162
aF-1634
aF-2790
aF-2742
aF-1670
aF-223
aF750
aF660
aF-524
aF-2533
aF-4005
aF-3415
aF-1131
aF731
aF1026
aF283
aF-725
aF-1741
aF-3195
aF-4059
aF-3001
aF-396
aF1489
aF1039
aF-980
aF-2594
aF-2186
aF-690
aF-643
aF-2377
aF-3914
aF-3266
aF-229
aF2763
aF3039
aF1
aF-4780
aF-7931
aF-6562
aF-867
aF3550
aF3272
aF-201
aF-4393
aF-5702
aF-2839
aF308
aF-76
aF-2836
aF-4567
aF-2600
aF1648
aF3855
aF2356
aF-2343
aF-7295
aF-8795
aF-5377
aF1204
aF4553
aF3701
aF240
aF-4398
aF-7209
aF-7348
aF-5137
aF-1426
aF1711
aF3443
aF3807
aF2385
aF-973
aF-5955
aF-9495
aF-9152
aF-4302
aF2809
aF5749
aF4697
aF-155
aF-6796
aF-9927
aF-8894
aF-3180
aF3577
aF5501
aF3758
aF-92
aF-4183
aF-6172
aF-5841
aF-4643
aF-3396
aF-1648
aF625
aF2896
aF3866
aF2042
aF-2595
aF-7725
aF-9710
aF-7219
aF-849
aF4628
aF5265
aF2303
aF-3433
aF-8405
aF-9207
aF-5893
aF186
aF3915
aF3302
aF345
aF-3411
aF-5478
aF-4242
aF-1442
aF-256
aF-1079
aF-1714
aF-434
aF1580
aF1474
aF-1244
aF-4914
aF-6903
aF-5074
aF-158
aF3522
aF3735
aF825
aF-3779
aF-7291
aF-7428
aF-3515
aF1650
aF3621
aF2359
aF-857
aF-4307
aF-5940
aF-5130
aF-2746
aF-173
aF1450
aF1748
aF1023
aF-762
aF-3517
aF-6068
aF-6739
aF-3930
aF1280
aF4557
aF4244
aF439
aF-5452
aF-9019
aF-8631
aF-3404
aF3550
aF5286
aF3118
aF-2221
aF-7580
aF-8642
aF-6294
aF-1537
aF1979
aF2493
aF2441
aF2198
aF364
aF-3480
aF-7298
aF-8462
aF-5428
aF696
aF4739
aF4774
aF1609
aF-3741
aF-8135
aF-8860
aF-5890
aF-305
aF3633
aF3591
aF1572
aF-1652
aF-4971
aF-6829
aF-6087
aF-2799
aF983
aF2516
aF1393
aF-863
aF-2469
aF-2563
aF-1467
aF-863
aF-1632
aF-2836
aF-2704
aF-955
aF920
aF1318
aF-119
aF-2347
aF-3583
aF-2896
aF-1314
aF-962
aF-1866
aF-2117
aF-496
aF2118
aF2822
aF156
aF-4676
aF-8433
aF-7987
aF-2367
aF3746
aF5154
aF2574
aF-2818
aF-7656
aF-8787
aF-5793
aF-469
aF2840
aF3092
aF1666
aF-473
aF-2427
aF-4021
aF-5300
aF-5542
aF-3775
aF-212
aF2836
aF3595
aF1765
aF-2231
aF-6380
aF-8134
aF-6256
aF-1633
aF2561
aF3863
aF2621
aF-495
aF-4478
aF-7230
aF-7098
aF-3933
aF144
aF2758
aF3467
aF1826
aF-1228
aF-4735
aF-6707
aF-5443
aF-1563
aF1801
aF2260
aF797
aF-1349
aF-3326
aF-4582
aF-4220
aF-1833
aF933
aF1762
aF448
aF-2082
aF-4075
aF-3810
aF-1506
aF633
aF838
aF-549
aF-2226
aF-2944
aF-2007
aF-261
aF136
aF-1622
aF-3509
aF-2948
aF86
aF2215
aF1226
aF-2273
aF-5707
aF-6175
aF-2808
aF1596
aF3418
aF2199
aF-1597
aF-6079
aF-7998
aF-5586
aF98
aF3664
aF3027
aF-160
aF-4093
aF-6349
aF-5750
aF-2949
aF275
aF1972
aF1510
aF-500
aF-2814
aF-3800
aF-2664
aF-1267
aF-1333
aF-2017
aF-1263
aF1190
aF1953
aF-286
aF-3811
aF-6042
aF-4860
aF-575
aF2671
aF2555
aF-176
aF-4262
aF-7063
aF-5832
aF-978
aF2972
aF2821
aF-104
aF-3124
aF-4459
aF-3818
aF-2555
aF-1917
aF-1069
aF625
aF1815
aF1351
aF-749
aF-3793
aF-6235
aF-6544
aF-3663
aF1320
aF4309
aF3720
aF-237
aF-5958
aF-9279
aF-8235
aF-2962
aF3392
aF5610
aF3789
aF-1122
aF-6927
aF-9685
aF-7957
aF-1805
aF3582
aF4254
aF2086
aF-819
aF-2603
aF-3707
aF-5426
aF-6903
aF-5768
aF-1026
aF3809
aF4872
aF2456
aF-2491
aF-7525
aF-9395
aF-7164
aF-852
aF4313
aF4750
aF1739
aF-3485
aF-7323
aF-7284
aF-4128
aF-830
aF239
aF157
aF295
aF916
aF1116
aF-87
aF-2762
aF-5904
aF-7483
aF-5099
aF807
aF4785
aF4128
aF-526
aF-6559
aF-9171
aF-6674
aF-396
aF3825
aF3188
aF0
aF-3443
aF-4618
aF-2935
aF-637
aF-170
aF-1607
aF-3460
aF-3354
aF-91
aF3151
aF3070
aF-551
aF-5688
aF-8608
aF-6459
aF-551
aF3915
aF4157
aF1055
aF-3604
aF-6822
aF-6557
aF-2690
aF1515
aF1991
aF-199
aF-2860
aF-4007
aF-2045
aF-146
aF-519
aF-1571
aF-1768
aF-652
aF344
aF5
aF-1408
aF-2788
aF-3329
aF-2730
aF-1101
aF943
aF1779
aF611
aF-1944
aF-4661
aF-5680
aF-3786
aF-198
aF2245
aF2416
aF790
aF-2045
aF-4765
aF-5454
aF-3709
aF-927
aF706
aF1041
aF919
aF305
aF-1247
aF-3631
aF-5861
aF-5977
aF-2672
aF1928
aF3892
aF2774
aF-1131
aF-6181
aF-8783
aF-7002
aF-1129
aF3837
aF3939
aF811
aF-3699
aF-6549
aF-5726
aF-2750
aF-760
aF-695
aF-801
aF351
aF2112
aF2240
aF-597
aF-5166
aF-8230
aF-7103
aF-1618
aF3328
aF3993
aF1626
aF-2656
aF-6277
aF-7064
aF-4659
aF-769
aF1482
aF1786
aF972
aF-419
aF-1811
aF-3047
aF-3824
aF-3863
aF-2864
aF-861
aF1299
aF2138
aF976
aF-1440
aF-3965
aF-5275
aF-4347
aF-1519
aF1300
aF2006
aF658
aF-1544
aF-3516
aF-4166
aF-2975
aF-1173
aF-257
aF-495
aF-943
aF-739
aF-58
aF231
aF-823
aF-2656
aF-4022
aF-3694
aF-1552
aF873
aF1886
aF923
aF-1265
aF-3496
aF-4446
aF-3499
aF-1538
aF-18
aF510
aF402
aF13
aF-535
aF-1520
aF-2936
aF-4042
aF-3733
aF-1768
aF686
aF2080
aF1665
aF-364
aF-3190
aF-5527
aF-5667
aF-2859
aF758
aF2549
aF2117
aF-97
aF-2907
aF-4931
aF-5378
aF-3943
aF-1297
aF1215
aF2451
aF2024
aF-84
aF-3302
aF-6195
aF-7060
aF-4434
aF610
aF3861
aF3646
aF461
aF-4507
aF-8104
aF-7810
aF-3420
aF1947
aF3741
aF2077
aF-1558
aF-5236
aF-6299
aF-3782
aF151
aF1645
aF527
aF-1348
aF-2571
aF-2284
aF-1179
aF-616
aF-1544
aF-2846
aF-2614
aF-682
aF1683
aF2297
aF133
aF-3648
aF-6397
aF-5737
aF-1620
aF2397
aF3012
aF948
aF-2703
aF-5937
aF-6752
aF-3917
aF1088
aF3703
aF2545
aF-1675
aF-6489
aF-7916
aF-4325
aF1432
aF4077
aF2520
aF-1427
aF-5298
aF-6599
aF-4451
aF-800
aF1090
aF593
aF-432
aF-326
aF257
aF-438
aF-2857
aF-5607
aF-5984
aF-2289
aF2669
aF4105
aF1777
aF-3119
aF-7667
aF-8555
aF-4682
aF1661
aF4658
aF3323
aF-568
aF-4705
aF-6343
aF-5399
aF-3418
aF-1627
aF287
aF1895
aF2364
aF1417
aF-1316
aF-4799
aF-7289
aF-7203
aF-3374
aF2160
aF5127
aF4183
aF-698
aF-6838
aF-9458
aF-7271
aF-1720
aF3521
aF3910
aF1507
aF-2212
aF-5736
aF-6779
aF-5055
aF-1742
aF565
aF877
aF714
aF793
aF523
aF-1322
aF-4458
aF-6429
aF-5050
aF-737
aF2841
aF2965
aF736
aF-2320
aF-5193
aF-6507
aF-4958
aF-1035
aF2455
aF3137
aF1215
aF-2016
aF-4582
aF-5107
aF-3587
aF-1193
aF368
aF643
aF47
aF-706
aF-1156
aF-1343
aF-1677
aF-2657
aF-3636
aF-2754
aF278
aF2570
aF1870
aF-1296
aF-4593
aF-5606
aF-3277
aF309
aF1622
aF531
aF-1816
aF-3852
aF-3734
aF-1237
aF1287
aF1457
aF-779
aF-3604
aF-4548
aF-2587
aF449
aF1808
aF486
aF-2269
aF-4421
aF-4378
aF-1761
aF1233
aF1861
aF-126
aF-3149
aF-4968
aF-3768
aF-393
aF1851
aF1172
aF-1277
aF-3501
aF-3845
aF-1810
aF125
aF-42
aF-1435
aF-2415
aF-1869
aF-23
aF860
aF-77
aF-1893
aF-3432
aF-3440
aF-1737
aF288
aF1126
aF189
aF-1561
aF-2620
aF-2460
aF-1842
aF-1447
aF-1265
aF-518
aF910
aF1441
aF-105
aF-3148
aF-5731
aF-5514
aF-1684
aF2227
aF3341
aF1937
aF-1739
aF-5934
aF-7995
aF-6189
aF-869
aF3394
aF3563
aF868
aF-2776
aF-5146
aF-5131
aF-3266
aF-1040
aF267
aF587
aF303
aF-180
aF-635
aF-1424
aF-2949
aF-4539
aF-4577
aF-1751
aF2202
aF3763
aF1791
aF-2661
aF-6785
aF-7768
aF-4663
aF622
aF3461
aF2840
aF23
aF-3521
aF-5773
aF-5427
aF-3062
aF-597
aF701
aF1178
aF1235
aF326
aF-1671
aF-3880
aF-4860
aF-4052
aF-1604
aF1228
aF2494
aF1588
aF-906
aF-3923
aF-5700
aF-4925
aF-1858
aF1284
aF2067
aF1025
aF-724
aF-2725
aF-4090
aF-3924
aF-2277
aF-346
aF491
aF-76
aF-801
aF-1010
aF-1133
aF-1417
aF-1617
aF-1911
aF-2047
aF-1737
aF-975
aF244
aF1133
aF632
aF-1662
aF-4697
aF-5838
aF-3392
aF561
aF2496
aF1789
aF-189
aF-2132
aF-3490
aF-3860
aF-2933
aF-1510
aF-612
aF-292
aF314
aF1059
aF952
aF-553
aF-3583
aF-6373
aF-6172
aF-2142
aF2180
aF3693
aF2426
aF-1228
aF-5156
aF-6972
aF-5591
aF-1876
aF1258
aF2075
aF1560
aF507
aF-1024
aF-3071
aF-5407
aF-6326
aF-4000
aF576
aF3765
aF3944
aF1117
aF-3773
aF-7935
aF-8665
aF-4820
aF1407
aF4372
aF3105
aF-1075
aF-5526
aF-6707
aF-3768
aF215
aF1175
aF-847
aF-2884
aF-2554
aF64
aF2345
aF1581
aF-2248
aF-6336
aF-7085
aF-2974
aF2477
aF3897
aF1159
aF-3437
aF-6552
aF-5496
aF-1161
aF1902
aF1433
aF-1282
aF-3997
aF-4055
aF-1222
aF1514
aF1524
aF-706
aF-3270
aF-4367
aF-3671
aF-2080
aF-295
aF1355
aF2122
aF1128
aF-1610
aF-4847
aF-6198
aF-4247
aF-592
aF1742
aF1824
aF519
aF-1253
aF-2866
aF-3828
aF-3776
aF-2713
aF-1143
aF457
aF1683
aF1825
aF567
aF-2132
aF-5316
aF-6978
aF-5490
aF-1229
aF2669
aF3798
aF2428
aF-862
aF-4912
aF-7619
aF-7312
aF-3566
aF1112
aF3269
aF2922
aF942
aF-1874
aF-4382
aF-5571
aF-5398
aF-3954
aF-1357
aF1561
aF3495
aF3191
aF29
aF-4921
aF-8235
aF-7317
aF-1571
aF3772
aF4157
aF1242
aF-3531
aF-7082
aF-7327
aF-4509
aF-438
aF1903
aF2000
aF917
aF-529
aF-1695
aF-2754
aF-3984
aF-4575
aF-3110
aF261
aF2632
aF2258
aF-603
aF-4393
aF-6520
aF-5049
aF-832
aF2335
aF2453
aF323
aF-2816
aF-4921
aF-4207
aF-1553
aF516
aF826
aF166
aF-636
aF-938
aF-1340
aF-2809
aF-4522
aF-4351
aF-1367
aF2337
aF3422
aF1209
aF-2842
aF-6366
aF-6825
aF-2785
aF2084
aF2973
aF460
aF-3739
aF-6220
aF-4653
aF-367
aF2054
aF792
aF-1957
aF-3618
aF-2825
aF-499
aF985
aF364
aF-1590
aF-3484
aF-3583
aF-1681
aF319
aF1067
aF479
aF-820
aF-2429
aF-3499
aF-3386
aF-1980
aF-155
aF857
aF740
aF-132
aF-1181
aF-2313
aF-3480
aF-3871
aF-2547
aF-14
aF1695
aF1304
aF-855
aF-3200
aF-3744
aF-2367
aF-611
aF201
aF-309
aF-1303
aF-1709
aF-1241
aF-204
aF-20
aF-1593
aF-3785
aF-4387
aF-1989
aF1593
aF2991
aF1250
aF-2529
aF-5873
aF-6372
aF-3451
aF947
aF3146
aF2171
aF-924
aF-4620
aF-6436
aF-4815
aF-978
aF1664
aF1652
aF32
aF-1962
aF-3321
aF-3596
aF-2310
aF-65
aF1058
aF217
aF-1512
aF-2718
aF-2609
aF-1539
aF-653
aF-481
aF-775
aF-1457
aF-2293
aF-1770
aF327
aF1239
aF210
aF-2646
aF-5015
aF-4311
aF-718
aF1785
aF1420
aF-691
aF-2867
aF-3697
aF-3054
aF-1557
aF-44
aF602
aF89
aF-1158
aF-2233
aF-2097
aF-1084
aF-722
aF-1718
aF-2660
aF-2030
aF-77
aF1501
aF1347
aF-877
aF-4152
aF-6473
aF-5599
aF-1117
aF3052
aF3491
aF626
aF-3446
aF-5632
aF-4448
aF-1702
aF-621
aF-1422
aF-2038
aF-656
aF1829
aF2846
aF1008
aF-3487
aF-7970
aF-8797
aF-3767
aF3355
aF5868
aF3388
aF-3144
aF-8671
aF-9081
aF-4557
aF2186
aF4490
aF2544
aF-1040
aF-4140
aF-4836
aF-3589
aF-2414
aF-2444
aF-2491
aF-1174
aF1179
aF2641
aF1857
aF-778
aF-4009
aF-6199
aF-5997
aF-3275
aF113
aF2133
aF2558
aF1637
aF-296
aF-2905
aF-5686
aF-7017
aF-5201
aF-552
aF3149
aF3606
aF1273
aF-3066
aF-6764
aF-7402
aF-4545
aF-373
aF1973
aF2064
aF907
aF-639
aF-1597
aF-2063
aF-2849
aF-4028
aF-4674
aF-2937
aF1086
aF3501
aF2322
aF-1037
aF-4801
aF-6637
aF-5272
aF-1915
aF790
aF1649
aF1193
aF106
aF-1280
aF-2702
aF-3724
aF-4053
aF-3024
aF-401
aF1664
aF1572
aF-377
aF-3117
aF-4515
aF-2981
aF-117
aF1035
aF-119
aF-2551
aF-4329
aF-3541
aF-17
aF3032
aF2832
aF-722
aF-5897
aF-8829
aF-7060
aF-249
aF5092
aF5315
aF1221
aF-5560
aF-9578
aF-8431
aF-3385
aF2210
aF3420
aF1231
aF-1272
aF-2200
aF-1347
aF-1282
aF-3651
aF-6410
aF-5979
aF-964
aF3684
aF4343
aF1506
aF-4372
aF-8824
aF-8975
aF-4173
aF2485
aF4847
aF3064
aF-633
aF-3871
aF-4948
aF-4590
aF-4260
aF-3864
aF-1692
aF1743
aF3404
aF2216
aF-1490
aF-5539
aF-7147
aF-5275
aF-994
aF2066
aF2430
aF714
aF-2031
aF-3990
aF-3878
aF-2049
aF-398
aF-262
aF-899
aF-951
aF-442
aF-295
aF-1029
aF-2122
aF-2707
aF-2327
aF-1373
aF-629
aF-178
aF-16
aF-307
aF-1246
aF-2240
aF-2298
aF-1187
aF-180
aF-290
aF-1098
aF-1843
aF-2133
aF-1913
aF-1286
aF-589
aF-176
aF100
aF-154
aF-1130
aF-2341
aF-3386
aF-3545
aF-2235
aF268
aF2457
aF2626
aF150
aF-3776
aF-6817
aF-6603
aF-2745
aF1757
aF3507
aF2240
aF-932
aF-4298
aF-6012
aF-5207
aF-2343
aF447
aF1649
aF1539
aF490
aF-1404
aF-3634
aF-5056
aF-5121
aF-3149
aF140
aF2742
aF3186
aF1278
aF-2163
aF-5267
aF-6167
aF-4569
aF-1634
aF857
aF2057
aF2019
aF537
aF-2267
aF-5181
aF-6401
aF-4429
aF-49
aF3104
aF3042
aF54
aF-4234
aF-6777
aF-5189
aF-366
aF2859
aF1943
aF-1626
aF-4936
aF-5317
aF-2157
aF963
aF1288
aF-329
aF-1643
aF-1653
aF-1555
aF-1820
aF-2326
aF-2312
aF-930
aF848
aF1504
aF580
aF-1847
aF-4655
aF-5825
aF-3959
aF143
aF2962
aF2667
aF-351
aF-4555
aF-6878
aF-5063
aF-415
aF2554
aF1809
aF-1166
aF-3892
aF-3926
aF-1389
aF777
aF228
aF-2415
aF-4439
aF-3260
aF576
aF3172
aF2118
aF-2073
aF-6470
aF-7303
aF-2998
aF2314
aF3413
aF587
aF-4057
aF-6799
aF-4827
aF625
aF3260
aF2166
aF-1822
aF-5873
aF-6956
aF-4072
aF911
aF3298
aF1979
aF-1231
aF-4156
aF-5036
aF-3514
aF-1231
aF-159
aF-79
aF2
aF301
aF56
aF-1167
aF-2986
aF-4456
aF-4131
aF-1614
aF1260
aF2440
aF1460
aF-1001
aF-3604
aF-4891
aF-4605
aF-3331
aF-1670
aF318
aF2249
aF2988
aF1633
aF-1668
aF-5347
aF-7268
aF-6106
aF-2268
aF1542
aF3370
aF3260
aF1136
aF-2538
aF-6194
aF-8077
aF-6833
aF-2368
aF2658
aF4921
aF4009
aF-143
aF-5933
aF-9129
aF-8240
aF-2998
aF3119
aF4757
aF3237
aF-896
aF-5687
aF-8052
aF-7322
aF-3824
aF67
aF1926
aF2264
aF2006
aF979
aF-942
aF-3741
aF-6529
aF-7383
aF-4781
aF516
aF4249
aF4495
aF961
aF-4866
aF-8926
aF-8238
aF-2230
aF3714
aF4353
aF758
aF-4361
aF-7157
aF-5246
aF-745
aF1637
aF835
aF-1254
aF-2703
aF-2237
aF-979
aF-346
aF-470
aF-846
aF-709
aF-182
aF-424
aF-2119
aF-4544
aF-5940
aF-3475
aF1754
aF4297
aF2925
aF-1750
aF-6744
aF-8606
aF-6192
aF286
aF4382
aF4301
aF1105
aF-3900
aF-7269
aF-7311
aF-4509
aF-931
aF1131
aF1615
aF1237
aF276
aF-1194
aF-3052
aF-4463
aF-4706
aF-3461
aF-685
aF2102
aF3247
aF2294
aF-959
aF-5462
aF-8423
aF-7552
aF-2506
aF3087
aF4851
aF2972
aF-1341
aF-6006
aF-8043
aF-6368
aF-1886
aF1936
aF2382
aF1028
aF-691
aF-2114
aF-2924
aF-3144
aF-2882
aF-2229
aF-925
aF625
aF1196
aF322
aF-1149
aF-2171
aF-2256
aF-1961
aF-2059
aF-2365
aF-1843
aF-62
aF1760
aF1782
aF-449
aF-3840
aF-6283
aF-5600
aF-1656
aF2405
aF3404
aF1236
aF-2534
aF-5545
aF-5821
aF-2934
aF959
aF2270
aF739
aF-1960
aF-4391
aF-5083
aF-3193
aF11
aF2169
aF2324
aF278
aF-3012
aF-5422
aF-5348
aF-2498
aF1010
aF2411
aF1105
aF-1652
aF-3783
aF-3603
aF-1539
aF-415
aF-1173
aF-2091
aF-1084
aF1125
aF2308
aF917
aF-2908
aF-6656
aF-7500
aF-4023
aF1652
aF4631
aF3759
aF-814
aF-6801
aF-9673
aF-6932
aF-194
aF4133
aF3422
aF161
aF-2958
aF-3831
aF-2950
aF-2314
aF-2496
aF-2399
aF-1127
aF862
aF2024
aF1360
aF-1276
aF-4811
aF-6651
aF-4555
aF407
aF3126
aF1740
aF-1878
aF-4966
aF-4810
aF-1141
aF1608
aF822
aF-1975
aF-4797
aF-5446
aF-2554
aF1649
aF3359
aF2101
aF-1970
aF-6499
aF-7817
aF-4501
aF1073
aF3585
aF2232
aF-1047
aF-4393
aF-5900
aF-4371
aF-1029
aF1196
aF961
aF-793
aF-1975
aF-1335
aF-49
aF-265
aF-2416
aF-4412
aF-3750
aF-381
aF2067
aF1494
aF-948
aF-3263
aF-3864
aF-2710
aF-1273
aF-721
aF-796
aF-802
aF-501
aF-181
aF-201
aF-760
aF-1882
aF-2908
aF-2958
aF-1678
aF-62
aF535
aF-131
aF-1363
aF-2380
aF-2450
aF-1599
aF-661
aF-41
aF-14
aF-525
aF-1483
aF-2308
aF-2273
aF-1641
aF-803
aF-621
aF-1430
aF-1735
aF-799
aF767
aF1334
aF-383
aF-3506
aF-5817
aF-5295
aF-1445
aF2388
aF3327
aF1364
aF-3059
aF-7190
aF-7837
aF-3475
aF2457
aF4517
aF2614
aF-2480
aF-7128
aF-8482
aF-5006
aF1558
aF4830
aF4188
aF-342
aF-6425
aF-9426
aF-7765
aF-2695
aF2197
aF3361
aF2055
aF229
aF-1440
aF-2912
aF-4565
aF-5903
aF-5328
aF-2044
aF2201
aF4179
aF3196
aF-911
aF-6485
aF-9629
aF-8086
aF-2082
aF3890
aF5413
aF3506
aF-733
aF-5794
aF-9000
aF-8818
aF-4934
aF1160
aF4632
aF4345
aF1654
aF-3172
aF-7255
aF-8679
aF-6435
aF-217
aF4301
aF5058
aF2403
aF-2952
aF-7661
aF-8780
aF-5831
aF-218
aF3351
aF3340
aF856
aF-3172
aF-6111
aF-5899
aF-2854
aF186
aF978
aF233
aF-709
aF-1223
aF-1454
aF-1643
aF-1856
aF-1989
aF-1724
aF-775
aF601
aF1072
aF-451
aF-3289
aF-5349
aF-4490
aF-737
aF2576
aF2959
aF679
aF-2756
aF-5451
aF-6115
aF-3741
aF449
aF3001
aF2523
aF-339
aF-3762
aF-5414
aF-4269
aF-1712
aF-42
aF320
aF534
aF748
aF395
aF-1076
aF-3591
aF-6154
aF-6294
aF-2467
aF2497
aF4610
aF3087
aF-1837
aF-7274
aF-9299
aF-6063
aF291
aF3688
aF3129
aF720
aF-2188
aF-4085
aF-4426
aF-3894
aF-2912
aF-1547
aF105
aF1815
aF2355
aF767
aF-2566
aF-5956
aF-7149
aF-4494
aF571
aF3259
aF3235
aF1324
aF-2698
aF-6982
aF-8908
aF-6387
aF502
aF5374
aF4882
aF92
aF-6407
aF-9664
aF-7542
aF-1289
aF3884
aF4249
aF1329
aF-3173
aF-6583
aF-6834
aF-4011
aF-366
aF1486
aF1775
aF1471
aF242
aF-2210
aF-5324
aF-7110
aF-5306
aF-257
aF3716
aF3959
aF1203
aF-3341
aF-7278
aF-8015
aF-4688
aF752
aF3682
aF2925
aF-226
aF-3863
aF-5588
aF-4914
aF-2871
aF-982
aF382
aF1901
aF2638
aF1600
aF-1403
aF-5480
aF-8337
aF-7724
aF-2567
aF3508
aF5755
aF3839
aF-2183
aF-8124
aF-9690
aF-5741
aF1631
aF4881
aF3812
aF-1094
aF-6685
aF-8770
aF-5826
aF569
aF3941
aF2454
aF-1673
aF-5303
aF-5328
aF-1564
aF1803
aF1274
aF-2023
aF-4943
aF-4632
aF-921
aF2336
aF2209
aF-788
aF-4365
aF-5844
aF-3819
aF-87
aF1780
aF837
aF-1565
aF-3433
aF-3125
aF-933
aF967
aF841
aF-992
aF-3050
aF-3948
aF-3235
aF-1114
aF869
aF1127
aF334
aF-1170
aF-3004
aF-4272
aF-3971
aF-2035
aF651
aF2359
aF2116
aF-107
aF-3426
aF-5947
aF-5702
aF-2722
aF668
aF2147
aF1461
aF-95
aF-1503
aF-2798
aF-4260
aF-4766
aF-3409
aF-380
aF2481
aF2853
aF461
aF-3243
aF-5777
aF-5576
aF-2932
aF-59
aF1165
aF925
aF104
aF-505
aF-848
aF-1816
aF-3880
aF-5650
aF-4438
aF282
aF4055
aF3875
aF-108
aF-5503
aF-8380
aF-6970
aF-2308
aF1955
aF3031
aF2193
aF276
aF-2339
aF-4621
aF-5629
aF-5342
aF-3685
aF155
aF3202
aF2998
aF613
aF-3926
aF-7759
aF-8226
aF-4268
aF1734
aF4512
aF3795
aF591
aF-4085
aF-7670
aF-8337
aF-5029
aF654
aF3968
aF3636
aF909
aF-2575
aF-5185
aF-6205
aF-5644
aF-3429
aF-195
aF2357
aF3188
aF2116
aF-602
aF-4163
aF-7175
aF-7912
aF-4817
aF956
aF4424
aF4332
aF914
aF-4768
aF-8607
aF-8465
aF-4299
aF1664
aF4335
aF3448
aF-29
aF-4533
aF-7188
aF-6328
aF-2744
aF582
aF1653
aF828
aF-499
aF-1412
aF-1919
aF-2250
aF-2682
aF-3255
aF-2622
aF-116
aF2318
aF2780
aF498
aF-3697
aF-6842
aF-6481
aF-2696
aF1373
aF2786
aF1566
aF-828
aF-2846
aF-3421
aF-2819
aF-2050
aF-1701
aF-1318
aF-186
aF1234
aF1319
aF-630
aF-3897
aF-6103
aF-4790
aF-220
aF3235
aF2946
aF-440
aF-5011
aF-7582
aF-5942
aF-700
aF3228
aF3264
aF197
aF-4069
aF-6354
aF-5042
aF-1380
aF933
aF503
aF-1027
aF-1736
aF-944
aF236
aF116
aF-1769
aF-4136
aF-4838
aF-2325
aF1790
aF3636
aF1871
aF-2485
aF-6830
aF-8164
aF-4797
aF1246
aF4586
aF4030
aF278
aF-5111
aF-9001
aF-8442
aF-3253
aF2960
aF5039
aF2722
aF-1975
aF-6358
aF-7608
aF-4807
aF-228
aF2062
aF1504
aF-102
aF-1209
aF-1356
aF-1574
aF-2809
aF-4517
aF-4634
aF-1528
aF2610
aF4151
aF1912
aF-3263
aF-7552
aF-7841
aF-2950
aF2819
aF4070
aF1292
aF-4296
aF-8055
aF-6651
aF-792
aF3436
aF2845
aF-659
aF-4177
aF-5031
aF-2833
aF-295
aF-5
aF-1686
aF-3151
aF-1748
aF1442
aF2587
aF564
aF-3677
aF-7090
aF-6958
aF-2337
aF3086
aF4824
aF2609
aF-2809
aF-7934
aF-9065
aF-5273
aF1604
aF4982
aF3969
aF-489
aF-6154
aF-8916
aF-7238
aF-2463
aF1843
aF3066
aF2287
aF601
aF-1920
aF-4451
aF-6116
aF-6587
aF-4085
aF556
aF4575
aF5098
aF1473
aF-4426
aF-8603
aF-8196
aF-3475
aF1937
aF3754
aF2631
aF-185
aF-3674
aF-5849
aF-5926
aF-4087
aF-1313
aF938
aF2568
aF3215
aF1833
aF-2010
aF-6822
aF-9107
aF-6585
aF-396
aF4302
aF4912
aF2515
aF-2109
aF-6967
aF-9377
aF-7685
aF-1645
aF3717
aF4910
aF2418
aF-3076
aF-7624
aF-8564
aF-4758
aF1362
aF3989
aF2867
aF-854
aF-5144
aF-6848
aF-4553
aF-485
aF1245
aF168
aF-1067
aF-884
aF133
aF51
aF-1896
aF-4248
aF-4852
aF-2527
aF1198
aF2926
aF1594
aF-2037
aF-5888
aF-6764
aF-3133
aF1774
aF3266
aF1222
aF-2232
aF-4532
aF-4203
aF-2352
aF-1124
aF-739
aF54
aF1373
aF1655
aF-417
aF-4291
aF-7545
aF-7227
aF-1959
aF3725
aF5109
aF2574
aF-3461
aF-7987
aF-8763
aF-4575
aF2479
aF4800
aF3734
aF-253
aF-5681
aF-8573
aF-8662
aF-5887
aF-472
aF3876
aF5158
aF3561
aF-1015
aF-6485
aF-9434
aF-8436
aF-3769
aF1884
aF4411
aF4002
aF1870
aF-1834
aF-5884
aF-8561
aF-8841
aF-4835
aF1921
aF5891
aF6198
aF2195
aF-5190
aF-9042
aF-8626
aF-3985
aF3082
aF4850
aF3764
aF-1062
aF-7372
aF-9976
aF-8814
aF-4189
aF1469
aF4154
aF4043
aF2625
aF79
aF-3523
aF-7370
aF-9293
aF-7512
aF-1120
aF4222
aF5039
aF2424
aF-3664
aF-8031
aF-8876
aF-4088
aF2808
aF5156
aF3432
aF-1250
aF-5901
aF-7063
aF-4144
aF-337
aF536
aF-1106
aF-2471
aF-1281
aF1707
aF2779
aF203
aF-4532
aF-7975
aF-6982
aF-1286
aF3960
aF4514
aF1107
aF-4581
aF-8428
aF-7747
aF-1763
aF3865
aF4465
aF679
aF-5188
aF-8536
aF-6430
aF-201
aF3952
aF3304
aF-502
aF-4856
aF-6857
aF-4915
aF-579
aF2160
aF1931
aF91
aF-2079
aF-3509
aF-3528
aF-2153
aF-622
aF69
aF-169
aF-897
aF-1057
aF-524
aF-274
aF-1183
aF-2920
aF-4060
aF-3150
aF-463
aF1867
aF2288
aF593
aF-2481
aF-5039
aF-5056
aF-2277
aF791
aF1545
aF104
aF-1616
aF-1780
aF-771
aF-351
aF-1872
aF-4250
aF-4595
aF-1477
aF2443
aF3870
aF1504
aF-3847
aF-8353
aF-8124
aF-2048
aF4056
aF4525
aF385
aF-5506
aF-8385
aF-5969
aF142
aF3760
aF2369
aF-1788
aF-5290
aF-4815
aF-819
aF2322
aF2020
aF-1331
aF-5670
aF-6744
aF-2812
aF2246
aF3666
aF1192
aF-3016
aF-6068
aF-5555
aF-1819
aF1738
aF2633
aF730
aF-2688
aF-5620
aF-5503
aF-1557
aF2502
aF3082
aF425
aF-3665
aF-6445
aF-5734
aF-1848
aF1783
aF2428
aF770
aF-1726
aF-3602
aF-3873
aF-2793
aF-1485
aF-670
aF86
aF1085
aF1614
aF114
aF-3410
aF-6752
aF-7097
aF-2995
aF2750
aF4702
aF2542
aF-2341
aF-7221
aF-8599
aF-5322
aF486
aF3415
aF2249
aF-828
aF-3221
aF-3066
aF-1426
aF-656
aF-1633
aF-3383
aF-3627
aF-1150
aF2235
aF3453
aF1357
aF-3273
aF-7540
aF-8287
aF-3835
aF2534
aF4929
aF3104
aF-2085
aF-7301
aF-8831
aF-5630
aF463
aF3738
aF3021
aF439
aF-2348
aF-4134
aF-4575
aF-3978
aF-2982
aF-1482
aF806
aF2578
aF2464
aF-85
aF-4289
aF-7579
aF-6709
aF-1305
aF3465
aF3862
aF690
aF-3810
aF-6354
aF-5191
aF-2016
aF-441
aF-912
aF-1030
aF518
aF2385
aF2309
aF-791
aF-5604
aF-8726
aF-7307
aF-1221
aF4374
aF4859
aF1454
aF-4217
aF-8000
aF-7883
aF-3608
aF1969
aF4087
aF3253
aF320
aF-3601
aF-7002
aF-7964
aF-5039
aF387
aF3634
aF3192
aF35
aF-4512
aF-7179
aF-5913
aF-1532
aF2104
aF1999
aF-726
aF-3243
aF-3290
aF-786
aF1243
aF100
aF-3119
aF-5102
aF-3052
aF1307
aF2797
aF243
aF-4389
aF-7621
aF-5580
aF972
aF5089
aF3939
aF-1731
aF-7955
aF-9549
aF-4858
aF2298
aF4637
aF2443
aF-1751
aF-5376
aF-6253
aF-4592
aF-2600
aF-1613
aF-193
aF2151
aF3697
aF3073
aF-780
aF-6137
aF-9252
aF-8364
aF-1510
aF3919
aF4029
aF2011
aF-3470
aF-4489
aF-4252
aF-3696
aF1759
aF4171
aF4858
aF1732
aF-5092
aF-9512
aF-9812
aF-6506
aF-1118
aF2379
aF3094
aF3114
aF2815
aF786
aF-3677
aF-8410
aF-10188
aF-7456
aF45
aF5600
aF6278
aF3056
aF-4315
aF-9218
aF-9692
aF-4955
aF3297
aF6224
aF4623
aF-592
aF-7001
aF-9707
aF-8362
aF-3951
aF897
aF3048
aF2928
aF1900
aF307
aF-2031
aF-4985
aF-7183
aF-6677
aF-2526
aF2458
aF3863
aF2239
aF-1710
aF-6018
aF-7684
aF-5247
aF-120
aF3183
aF2973
aF-114
aF-4109
aF-6040
aF-4343
aF-419
aF1870
aF1332
aF-886
aF-3155
aF-3805
aF-2226
aF-25
aF499
aF-840
aF-2446
aF-2385
aF-128
aF1697
aF706
aF-2802
aF-6324
aF-6541
aF-2021
aF3236
aF4641
aF1794
aF-4271
aF-9027
aF-9043
aF-3326
aF3784
aF5770
aF3129
aF-2538
aF-7822
aF-9314
aF-6148
aF-418
aF3111
aF3331
aF1665
aF-956
aF-3175
aF-4510
aF-5039
aF-4599
aF-2548
aF711
aF3227
aF3615
aF1340
aF-3122
aF-7320
aF-8391
aF-5374
aF168
aF4172
aF4449
aF1379
aF-3811
aF-7805
aF-7997
aF-3629
aF1840
aF3735
aF2231
aF-1359
aF-4707
aF-5726
aF-4164
aF-1405
aF240
aF258
aF-148
aF102
aF467
aF-814
aF-3995
aF-6904
aF-5843
aF-18
aF4652
aF4418
aF-245
aF-6432
aF-9199
aF-6939
aF436
aF5163
aF4765
aF-214
aF-6821
aF-9255
aF-6703
aF-405
aF3602
aF2849
aF328
aF-1844
aF-2503
aF-2296
aF-3135
aF-4861
aF-5213
aF-2170
aF2428
aF4434
aF2678
aF-2493
aF-7983
aF-9583
aF-5607
aF1533
aF5240
aF4262
aF169
aF-4998
aF-8248
aF-8125
aF-4675
aF157
aF3061
aF3536
aF2173
aF-580
aF-3898
aF-6811
aF-7792
aF-5334
aF-24
aF3995
aF4469
aF1766
aF-3168
aF-7516
aF-8772
aF-6073
aF-347
aF3887
aF4411
aF1784
aF-2839
aF-6732
aF-7548
aF-4898
aF-785
aF1850
aF2357
aF1440
aF-425
aF-2812
aF-4819
aF-5117
aF-3442
aF-980
aF943
aF1977
aF1898
aF362
aF-2343
aF-5116
aF-6364
aF-4963
aF-1288
aF2116
aF3536
aF2756
aF-830
aF-5854
aF-8959
aF-7398
aF-1198
aF3839
aF3926
aF970
aF-3462
aF-6571
aF-6686
aF-4018
aF-605
aF1293
aF1931
aF1718
aF620
aF-1774
aF-4987
aF-7485
aF-7108
aF-2292
aF3416
aF5370
aF3182
aF-2430
aF-7923
aF-9504
aF-6331
aF329
aF4568
aF4351
aF849
aF-4277
aF-7524
aF-6766
aF-2723
aF744
aF1381
aF522
aF-170
aF-368
aF-911
aF-2510
aF-4423
aF-4936
aF-2847
aF823
aF3148
aF2647
aF-819
aF-5486
aF-8175
aF-6332
aF-206
aF4251
aF4021
aF182
aF-5443
aF-8784
aF-7517
aF-1827
aF3754
aF4753
aF1731
aF-3782
aF-8238
aF-8332
aF-3597
aF2018
aF3830
aF2530
aF-31
aF-2508
aF-4208
aF-5323
aF-5840
aF-4901
aF-1531
aF2756
aF4714
aF3509
aF-1053
aF-6789
aF-8990
aF-7207
aF-922
aF4036
aF4587
aF1983
aF-3995
aF-8401
aF-8870
aF-4948
aF471
aF2582
aF2127
aF1451
aF1259
aF637
aF-2127
aF-6510
aF-9197
aF-7369
aF-771
aF4483
aF4841
aF2192
aF-3633
aF-7800
aF-8554
aF-6174
aF326
aF4390
aF4663
aF2502
aF-2387
aF-6960
aF-8888
aF-7666
aF-3782
aF562
aF3199
aF3460
aF1688
aF-998
aF-3942
aF-6091
aF-6779
aF-5342
aF-1718
aF2307
aF4410
aF3568
aF-275
aF-5596
aF-9127
aF-8219
aF-2805
aF3313
aF5350
aF2903
aF-2253
aF-7067
aF-8256
aF-5022
aF411
aF2922
aF1761
aF-736
aF-2844
aF-3324
aF-2588
aF-1865
aF-1388
aF-590
aF596
aF1104
aF74
aF-2397
aF-5140
aF-5991
aF-3318
aF1206
aF3675
aF2986
aF-684
aF-5549
aF-8350
aF-7055
aF-1116
aF4112
aF5041
aF1933
aF-3957
aF-8580
aF-8894
aF-4395
aF1627
aF3812
aF2626
aF-394
aF-3625
aF-4991
aF-4624
aF-4123
aF-3771
aF-2012
aF1545
aF4172
aF3872
aF-466
aF-6663
aF-10303
aF-8513
aF-730
aF5621
aF5997
aF1783
aF-4970
aF-8993
aF-8038
aF-2353
aF2788
aF3179
aF431
aF-2853
aF-3657
aF-2233
aF-1431
aF-2204
aF-3099
aF-1913
aF1058
aF2890
aF1660
aF-2125
aF-6456
aF-8044
aF-4280
aF2136
aF4898
aF2908
aF-2677
aF-7812
aF-8663
aF-4197
aF2433
aF4656
aF2754
aF-1670
aF-6127
aF-7861
aF-6303
aF-2226
aF1693
aF3045
aF2344
aF388
aF-2239
aF-4872
aF-6611
aF-6484
aF-3871
aF551
aF3592
aF3584
aF1419
aF-2301
aF-6030
aF-8030
aF-7413
aF-3416
aF1909
aF4721
aF4239
aF555
aF-4906
aF-8697
aF-8592
aF-4791
aF847
aF4087
aF3669
aF1375
aF-1864
aF-4962
aF-6873
aF-6967
aF-4625
aF-240
aF3581
aF4548
aF2053
aF-3099
aF-7741
aF-8651
aF-5273
aF105
aF3014
aF3098
aF1621
aF-686
aF-3317
aF-5752
aF-6448
aF-4713
aF-944
aF2610
aF3716
aF2239
aF-1555
aF-6182
aF-8635
aF-6956
aF-1237
aF3662
aF4370
aF2250
aF-2087
aF-6652
aF-8948
aF-7823
aF-2612
aF3109
aF5216
aF3900
aF-817
aF-6489
aF-9344
aF-8190
aF-2240
aF3755
aF5275
aF3411
aF-1790
aF-7240
aF-9170
aF-7254
aF-1721
aF3120
aF4344
aF3155
aF-241
aF-4674
aF-8130
aF-8886
aF-5990
aF-158
aF4303
aF5299
aF3163
aF-2343
aF-8171
aF-10467
aF-8208
aF-1492
aF4586
aF5290
aF2838
aF-2560
aF-7573
aF-8974
aF-6439
aF-227
aF3999
aF4109
aF1973
aF-1134
aF-3857
aF-5747
aF-6130
aF-4429
aF-1143
aF1861
aF3119
aF2284
aF-625
aF-4721
aF-7533
aF-6431
aF-1287
aF3332
aF3939
aF1149
aF-3590
aF-7168
aF-7197
aF-3459
aF1287
aF3384
aF2541
aF-714
aF-4310
aF-6121
aF-4833
aF-1015
aF1417
aF1960
aF1302
aF-218
aF-2866
aF-5196
aF-5372
aF-2873
aF752
aF2455
aF1759
aF-149
aF-2372
aF-4146
aF-4772
aF-3793
aF-1694
aF342
aF1481
aF1907
aF1538
aF-391
aF-3932
aF-7437
aF-7901
aF-3784
aF2508
aF5113
aF3548
aF-569
aF-5519
aF-8684
aF-8819
aF-5442
aF522
aF4631
aF4979
aF2435
aF-2215
aF-6734
aF-9019
aF-8588
aF-4582
aF1646
aF5118
aF5275
aF1579
aF-4952
aF-9220
aF-9314
aF-5128
aF1234
aF4192
aF4031
aF1920
aF-2077
aF-5813
aF-7720
aF-7287
aF-4779
aF-1032
aF2719
aF4452
aF3703
aF-214
aF-6082
aF-9294
aF-8447
aF-2187
aF4442
aF5737
aF3354
aF-2799
aF-8214
aF-9641
aF-6178
aF1376
aF5283
aF4133
aF-786
aF-6452
aF-8410
aF-5434
aF-296
aF2270
aF1616
aF-265
aF-1884
aF-2475
aF-2441
aF-2423
aF-2544
aF-2020
aF-110
aF2250
aF2892
aF562
aF-4302
aF-8449
aF-7920
aF-1577
aF4692
aF5585
aF1752
aF-4877
aF-9116
aF-8327
aF-3063
aF2732
aF4031
aF2377
aF-681
aF-3693
aF-5226
aF-5421
aF-4966
aF-3563
aF-679
aF2666
aF4184
aF2682
aF-1802
aF-6890
aF-8888
aF-6146
aF465
aF4452
aF3950
aF18
aF-5245
aF-7846
aF-5979
aF-1042
aF2293
aF2244
aF182
aF-2322
aF-3702
aF-3463
aF-2198
aF-981
aF-398
aF-113
aF219
aF176
aF-735
aF-2346
aF-3459
aF-3096
aF-1693
aF24
aF1112
aF867
aF-687
aF-2978
aF-4649
aF-3983
aF-806
aF1898
aF2151
aF108
aF-3061
aF-5290
aF-5162
aF-2853
aF-120
aF1304
aF1269
aF467
aF-453
aF-1438
aF-2872
aF-4681
aF-5585
aF-3874
aF346
aF3735
aF4199
aF1342
aF-4060
aF-8448
aF-9165
aF-5403
aF1094
aF4671
aF4622
aF2124
aF-2775
aF-7608
aF-9672
aF-7971
aF-2123
aF3927
aF5447
aF3635
aF-952
aF-6619
aF-9097
aF-8196
aF-3843
aF2303
aF4615
aF3901
aF1902
aF-1623
aF-5478
aF-8111
aF-8699
aF-6003
aF110
aF5123
aF6277
aF3447
aF-3270
aF-8609
aF-9417
aF-5727
aF1666
aF5166
aF4424
aF765
aF-4878
aF-8399
aF-8530
aF-5560
aF-362
aF3230
aF4141
aF2907
aF-712
aF-5224
aF-8767
aF-8774
aF-3794
aF2861
aF5350
aF3305
aF-2132
aF-7333
aF-8841
aF-5216
aF1084
aF4066
aF3231
aF44
aF-3781
aF-5858
aF-5229
aF-3065
aF-1158
aF-232
aF860
aF2482
aF2992
aF70
aF-5094
aF-8196
aF-6783
aF-1258
aF3409
aF3714
aF1543
aF-2195
aF-5904
aF-7612
aF-6423
aF-2283
aF2124
aF3629
aF2493
aF-93
aF-3286
aF-5971
aF-7041
aF-5429
aF-1080
aF2935
aF3933
aF2031
aF-1693
aF-5349
aF-7105
aF-6191
aF-2777
aF1213
aF3374
aF3095
aF558
aF-3027
aF-5533
aF-5715
aF-3832
aF-1273
aF696
aF1795
aF1794
aF360
aF-2308
aF-4926
aF-5819
aF-4112
aF-399
aF2591
aF2951
aF661
aF-3249
aF-6322
aF-6039
aF-2159
aF1784
aF2527
aF630
aF-1953
aF-3715
aF-3784
aF-2469
aF-1001
aF-304
aF-230
aF140
aF766
aF607
aF-1426
aF-5040
aF-7375
aF-4887
aF1309
aF5096
aF4008
aF-1465
aF-7528
aF-9777
aF-6317
aF974
aF4793
aF4149
aF510
aF-4825
aF-8251
aF-8175
aF-3923
aF1312
aF3618
aF3318
aF1639
aF-638
aF-3398
aF-6228
aF-7640
aF-6078
aF-1145
aF3623
aF5225
aF3802
aF-810
aF-6632
aF-9587
aF-8376
aF-2705
aF3783
aF5550
aF3402
aF-1848
aF-7335
aF-9280
aF-7227
aF-1841
aF2892
aF4054
aF2978
aF711
aF-2243
aF-5451
aF-7857
aF-7846
aF-3829
aF2321
aF5216
aF4293
aF-723
aF-7169
aF-10008
aF-7285
aF220
aF4816
aF4215
aF94
aF-5190
aF-7660
aF-5881
aF-1089
aF2055
aF1833
aF-262
aF-2039
aF-2056
aF-1152
aF-1110
aF-2399
aF-3566
aF-2587
aF411
aF2793
aF2299
aF-1114
aF-5221
aF-7095
aF-5362
aF-660
aF3108
aF3597
aF1398
aF-2825
aF-6812
aF-8001
aF-4937
aF410
aF3790
aF3930
aF1621
aF-2294
aF-6194
aF-8046
aF-6537
aF-1784
aF2924
aF4060
aF2029
aF-1754
aF-5298
aF-6701
aF-5255
aF-1767
aF1342
aF2587
aF2055
aF217
aF-2757
aF-5167
aF-5644
aF-3955
aF-854
aF2070
aF3284
aF2041
aF-1419
aF-5514
aF-7399
aF-5469
aF-1025
aF2288
aF2694
aF1388
aF-850
aF-3487
aF-5636
aF-5802
aF-3185
aF316
aF2197
aF2332
aF1154
aF-1443
aF-4886
aF-7162
aF-6509
aF-1390
aF3783
aF5088
aF2178
aF-4015
aF-9030
aF-9453
aF-4980
aF2182
aF5389
aF4279
aF110
aF-5762
aF-8943
aF-8120
aF-2786
aF2931
aF4446
aF3430
aF803
aF-2819
aF-6337
aF-8532
aF-8263
aF-3965
aF2356
aF5499
aF5000
aF950
aF-5393
aF-8777
aF-8330
aF-3888
aF2923
aF4990
aF3619
aF-374
aF-5446
aF-8326
aF-8723
aF-7398
aF-3794
aF1643
aF4848
aF4919
aF1862
aF-4440
aF-8929
aF-9648
aF-5928
aF1753
aF5350
aF5152
aF1054
aF-5929
aF-9773
aF-9700
aF-4615
aF2652
aF5691
aF5305
aF2711
aF-1996
aF-6887
aF-9626
aF-8679
aF-3679
aF2506
aF5314
aF4320
aF404
aF-4815
aF-8129
aF-7797
aF-3859
aF1220
aF3179
aF2784
aF1120
aF-1594
aF-4846
aF-7314
aF-7174
aF-3302
aF2005
aF4276
aF2944
aF-551
aF-4518
aF-7073
aF-7244
aF-4636
aF130
aF3485
aF3966
aF1787
aF-2716
aF-7063
aF-8598
aF-5916
aF9
aF4128
aF4351
aF967
aF-4589
aF-8515
aF-7823
aF-2260
aF3125
aF3779
aF1156
aF-2260
aF-4462
aF-4844
aF-3880
aF-2332
aF-668
aF945
aF1783
aF1261
aF-547
aF-3154
aF-4946
aF-4598
aF-2167
aF723
aF2033
aF1379
aF-641
aF-2725
aF-3665
aF-3212
aF-2036
aF-1063
aF-643
aF-88
aF748
aF868
aF-609
aF-3231
aF-5098
aF-4239
aF-825
aF2281
aF2453
aF-170
aF-3969
aF-6502
aF-5300
aF-556
aF3231
aF3024
aF-343
aF-4826
aF-7168
aF-5420
aF-661
aF2464
aF2452
aF544
aF-1912
aF-3448
aF-3688
aF-3129
aF-2373
aF-1598
aF-506
aF929
aF1904
aF1126
aF-1759
aF-5048
aF-6119
aF-3600
aF491
aF2566
aF2044
aF-267
aF-3182
aF-5194
aF-5249
aF-3258
aF-205
aF1835
aF1822
aF381
aF-1577
aF-2918
aF-3555
aF-4227
aF-4037
aF-1809
aF1660
aF3755
aF2908
aF-959
aF-5963
aF-8840
aF-7225
aF-1031
aF4236
aF4666
aF1183
aF-4387
aF-8071
aF-7326
aF-2367
aF2224
aF2763
aF824
aF-1216
aF-2395
aF-2768
aF-3000
aF-3112
aF-2366
aF-464
as.