(dp1
S'peak2peak'
p2
F0.0029011048203196649
sS'samples'
p3
(lp4
F-671
aF-3850
aF-4669
aF-2954
aF-1180
aF-1217
aF-2269
aF-2061
aF180
aF2328
aF1738
aF-1594
aF-5046
aF-5658
aF-3024
aF236
aF1493
aF916
aF-167
aF-1276
aF-2747
aF-4331
aF-4743
aF-3100
aF-96
aF2412
aF3218
aF1751
aF-2018
aF-6419
aF-8401
aF-5725
aF433
aF4540
aF4042
aF657
aF-4069
aF-7336
aF-7433
aF-4333
aF674
aF3899
aF3712
aF1190
aF-2295
aF-5098
aF-6159
aF-5483
aF-2906
aF1152
aF4324
aF3716
aF-790
aF-6281
aF-8455
aF-5773
aF-96
aF3613
aF2576
aF-528
aF-3013
aF-3280
aF-1800
aF-1210
aF-2375
aF-3791
aF-3189
aF170
aF3482
aF2918
aF-1823
aF-7097
aF-8201
aF-3671
aF2966
aF4739
aF1404
aF-3832
aF-7195
aF-6395
aF-1911
aF2623
aF3600
aF1738
aF-2119
aF-5723
aF-6721
aF-4900
aF-1527
aF1486
aF2941
aF2523
aF-262
aF-4752
aF-7527
aF-5625
aF68
aF4004
aF3168
aF-949
aF-5057
aF-6077
aF-3826
aF-1020
aF-22
aF-529
aF-798
aF280
aF1778
aF1145
aF-2090
aF-6017
aF-7449
aF-4175
aF1779
aF4612
aF2766
aF-2062
aF-6486
aF-6891
aF-3459
aF210
aF1288
aF604
aF-23
aF-246
aF-1004
aF-2362
aF-3601
aF-3908
aF-2534
aF-51
aF1737
aF1874
aF36
aF-3354
aF-6201
aF-5913
aF-1911
aF2781
aF3805
aF713
aF-4152
aF-7046
aF-5327
aF-415
aF2886
aF2130
aF-1112
aF-4217
aF-5130
aF-3617
aF-913
aF1187
aF1643
aF421
aF-1391
aF-2226
aF-2463
aF-2884
aF-3219
aF-2493
aF-3
aF2314
aF1446
aF-2162
aF-5026
aF-4298
aF-900
aF1087
aF-139
aF-1928
aF-1825
aF-440
aF-296
aF-1912
aF-3210
aF-2261
aF-108
aF752
aF-391
aF-1917
aF-2460
aF-2418
aF-2255
aF-1545
aF-304
aF298
aF-578
aF-1584
aF-948
aF515
aF-11
aF-3119
aF-5862
aF-4478
aF621
aF3750
aF1981
aF-2863
aF-6770
aF-6208
aF-1100
aF3510
aF3870
aF351
aF-4852
aF-7783
aF-5744
aF-242
aF3314
aF2299
aF-1186
aF-4115
aF-4493
aF-2822
aF-1036
aF-162
aF252
aF549
aF-267
aF-2556
aF-4779
aF-4734
aF-1360
aF2368
aF2706
aF-12
aF-4012
aF-6512
aF-5206
aF-714
aF2729
aF2325
aF-789
aF-3835
aF-4273
aF-2099
aF171
aF586
aF-484
aF-1578
aF-1857
aF-1749
aF-1744
aF-1791
aF-1503
aF-1048
aF-890
aF-961
aF-960
aF-633
aF-205
aF-293
aF-1343
aF-2876
aF-3819
aF-3224
aF-884
aF1554
aF1993
aF2
aF-3346
aF-5773
aF-5139
aF-1332
aF2469
aF3199
aF913
aF-3110
aF-6393
aF-6672
aF-3472
aF1326
aF3652
aF2531
aF-1027
aF-5120
aF-6703
aF-4279
aF-224
aF1341
aF146
aF-1323
aF-1150
aF163
aF226
aF-1758
aF-4016
aF-4063
aF-1483
aF972
aF717
aF-1523
aF-3289
aF-3018
aF-980
aF821
aF686
aF-1282
aF-3231
aF-3122
aF-738
aF1255
aF444
aF-2630
aF-4765
aF-3308
aF37
aF1623
aF241
aF-2166
aF-2955
aF-1835
aF-1098
aF-1684
aF-1902
aF-542
aF1265
aF1325
aF-1370
aF-4852
aF-6075
aF-3712
aF909
aF4293
aF3092
aF-1693
aF-6609
aF-8089
aF-4660
aF1445
aF4108
aF2710
aF-1010
aF-4624
aF-5488
aF-4201
aF-2964
aF-1899
aF-151
aF1733
aF2279
aF775
aF-1960
aF-4726
aF-6101
aF-4969
aF-1415
aF2663
aF4315
aF2578
aF-1846
aF-6253
aF-7784
aF-5839
aF-1740
aF1945
aF3736
aF3584
aF1074
aF-3472
aF-7426
aF-7949
aF-4290
aF1504
aF4260
aF3405
aF-291
aF-5401
aF-8345
aF-7456
aF-2854
aF2794
aF5256
aF3920
aF-695
aF-6616
aF-9210
aF-7055
aF-609
aF4894
aF5364
aF1997
aF-4156
aF-8839
aF-9218
aF-6109
aF-237
aF4707
aF5091
aF1803
aF-3920
aF-8248
aF-7678
aF-2709
aF2974
aF4114
aF1774
aF-1677
aF-4483
aF-5073
aF-4044
aF-2751
aF-1732
aF-868
aF684
aF2610
aF3127
aF488
aF-4710
aF-8328
aF-7339
aF-1263
aF3750
aF3841
aF991
aF-4336
aF-7492
aF-7290
aF-3768
aF1532
aF4452
aF4388
aF1867
aF-2907
aF-7076
aF-7891
aF-5068
aF415
aF3963
aF3917
aF706
aF-4600
aF-7993
aF-7031
aF-2322
aF2149
aF2832
aF945
aF-1308
aF-2779
aF-3065
aF-2816
aF-2332
aF-1119
aF467
aF1483
aF861
aF-1608
aF-4514
aF-5557
aF-3356
aF589
aF2889
aF1802
aF-1467
aF-4282
aF-4719
aF-2555
aF-25
aF553
aF-392
aF-1079
aF-690
aF37
aF-182
aF-2126
aF-4649
aF-5572
aF-3166
aF1317
aF3838
aF2618
aF-1722
aF-6185
aF-7234
aF-4117
aF275
aF2544
aF2364
aF1056
aF-977
aF-3628
aF-5772
aF-5908
aF-3212
aF584
aF2854
aF3019
aF1349
aF-1905
aF-5330
aF-6822
aF-4876
aF-379
aF2994
aF2621
aF-263
aF-2750
aF-3304
aF-2495
aF-1868
aF-2223
aF-2268
aF-850
aF1003
aF1512
aF234
aF-1963
aF-4032
aF-4693
aF-2856
aF393
aF2040
aF1399
aF-1104
aF-4121
aF-5411
aF-4057
aF-1212
aF1162
aF2079
aF1639
aF-34
aF-2825
aF-5960
aF-7138
aF-4016
aF2105
aF5541
aF3863
aF-2174
aF-8186
aF-9556
aF-5196
aF2410
aF5803
aF4398
aF-980
aF-6850
aF-8703
aF-6679
aF-1832
aF2317
aF3537
aF3225
aF1750
aF-1374
aF-5498
aF-8176
aF-7372
aF-2124
aF3631
aF5136
aF2336
aF-3643
aF-8274
aF-7711
aF-2813
aF1596
aF2239
aF909
aF74
aF-66
aF-680
aF-2883
aF-5932
aF-7182
aF-4302
aF1613
aF5427
aF4479
aF-226
aF-6240
aF-8805
aF-6672
aF-928
aF3950
aF4234
aF1297
aF-3570
aF-7551
aF-7760
aF-3486
aF2355
aF4904
aF3156
aF-1518
aF-6184
aF-7512
aF-5045
aF-566
aF2800
aF3380
aF1480
aF-2303
aF-6183
aF-7389
aF-4420
aF961
aF3665
aF2363
aF-1384
aF-5203
aF-6125
aF-3101
aF883
aF2213
aF766
aF-1980
aF-3781
aF-3031
aF-1053
aF-260
aF-1190
aF-2710
aF-2933
aF-1081
aF1422
aF1961
aF191
aF-2763
aF-4901
aF-4292
aF-1431
aF565
aF76
aF-1461
aF-1940
aF-415
aF993
aF-455
aF-3925
aF-5861
aF-3691
aF1106
aF3647
aF1843
aF-2211
aF-5172
aF-4912
aF-2111
aF299
aF501
aF-781
aF-1819
aF-1891
aF-906
aF352
aF259
aF-1571
aF-3656
aF-4106
aF-2152
aF433
aF1610
aF1222
aF-51
aF-1678
aF-3439
aF-5026
aF-5137
aF-2228
aF1924
aF3286
aF1205
aF-2828
aF-5951
aF-5289
aF-1387
aF1600
aF1725
aF-178
aF-2517
aF-3758
aF-3307
aF-1684
aF173
aF969
aF73
aF-1967
aF-3649
aF-3389
aF-1237
aF1183
aF1745
aF-7
aF-2726
aF-4554
aF-4126
aF-1773
aF415
aF1061
aF305
aF-863
aF-1843
aF-2511
aF-2791
aF-2604
aF-1613
aF176
aF1221
aF394
aF-1504
aF-3098
aF-2992
aF-1244
aF-103
aF-832
aF-2622
aF-3768
aF-2480
aF748
aF2879
aF2064
aF-1444
aF-5530
aF-7129
aF-4707
aF305
aF3475
aF2853
aF0
aF-3552
aF-6061
aF-6081
aF-3646
aF24
aF2655
aF2459
aF-104
aF-3338
aF-5090
aF-3733
aF-300
aF1294
aF-253
aF-2842
aF-4191
aF-2566
aF869
aF2701
aF921
aF-3216
aF-6406
aF-5741
aF-1174
aF2985
aF3158
aF123
aF-3779
aF-5770
aF-5060
aF-2647
aF64
aF1828
aF2200
aF985
aF-2208
aF-5490
aF-5887
aF-3096
aF545
aF2325
aF1737
aF-392
aF-3007
aF-4394
aF-3254
aF-451
aF1068
aF-468
aF-3352
aF-4418
aF-2083
aF1205
aF1735
aF-339
aF-2495
aF-2770
aF-1687
aF-1525
aF-2472
aF-2554
aF-830
aF1214
aF1562
aF-193
aF-2817
aF-4736
aF-4651
aF-2041
aF1138
aF1957
aF-36
aF-2630
aF-3006
aF-557
aF1460
aF-224
aF-4386
aF-6678
aF-4048
aF1489
aF4264
aF2756
aF-1719
aF-6377
aF-8191
aF-6309
aF-1331
aF3563
aF4677
aF2191
aF-2247
aF-6068
aF-6974
aF-5317
aF-2472
aF297
aF2909
aF4348
aF2386
aF-3032
aF-7924
aF-8057
aF-3454
aF2520
aF4357
aF1831
aF-2382
aF-6094
aF-6875
aF-3757
aF958
aF3162
aF1379
aF-2641
aF-5263
aF-3917
aF-74
aF1740
aF-373
aF-3401
aF-3403
aF-243
aF1904
aF233
aF-3796
aF-6243
aF-4228
aF822
aF3456
aF2136
aF-1717
aF-5450
aF-6184
aF-4007
aF-1237
aF610
aF1706
aF2568
aF2346
aF-495
aF-5341
aF-8770
aF-7916
aF-2012
aF4002
aF5223
aF2571
aF-3156
aF-7482
aF-8112
aF-4320
aF2147
aF4906
aF3675
aF-543
aF-5444
aF-7557
aF-6841
aF-4374
aF-975
aF2236
aF4192
aF3575
aF-615
aF-6274
aF-8764
aF-6145
aF357
aF4602
aF3515
aF-937
aF-5828
aF-7010
aF-3405
aF1166
aF2028
aF-716
aF-3854
aF-4598
aF-2056
aF1403
aF2391
aF323
aF-3152
aF-5427
aF-4336
aF-506
aF2352
aF1571
aF-1599
aF-4439
aF-4823
aF-2609
aF300
aF1641
aF865
aF-1204
aF-3366
aF-4427
aF-3267
aF-289
aF1925
aF1655
aF-637
aF-3234
aF-4585
aF-4304
aF-2663
aF-386
aF1583
aF2336
aF739
aF-2943
aF-5935
aF-5465
aF-1728
aF1912
aF2262
aF-132
aF-2998
aF-3703
aF-1533
aF793
aF598
aF-2481
aF-5918
aF-6182
aF-1641
aF3527
aF4582
aF1149
aF-4400
aF-7640
aF-6632
aF-2971
aF45
aF1485
aF2623
aF3182
aF1058
aF-4131
aF-8553
aF-8570
aF-3395
aF3369
aF5500
aF3273
aF-2123
aF-7487
aF-8799
aF-5508
aF1212
aF5103
aF3757
aF-1081
aF-6256
aF-7598
aF-4313
aF364
aF2425
aF1496
aF-656
aF-2851
aF-4329
aF-4108
aF-1777
aF1377
aF2834
aF1340
aF-2296
aF-5798
aF-6524
aF-3731
aF402
aF2427
aF1621
aF-51
aF-1292
aF-2106
aF-2902
aF-3667
aF-3695
aF-2241
aF305
aF2449
aF2602
aF720
aF-2556
aF-6089
aF-7649
aF-5346
aF223
aF4351
aF4588
aF1270
aF-3973
aF-7658
aF-7784
aF-4485
aF528
aF3605
aF3490
aF838
aF-3305
aF-6388
aF-6421
aF-3596
aF0
aF2118
aF2391
aF1013
aF-1847
aF-4801
aF-5693
aF-3015
aF1318
aF2774
aF467
aF-3194
aF-5472
aF-4697
aF-1355
aF1910
aF2972
aF1197
aF-2852
aF-6584
aF-6902
aF-2858
aF2312
aF4022
aF2166
aF-1834
aF-5782
aF-7570
aF-6457
aF-2411
aF2409
aF4746
aF3182
aF-1360
aF-5827
aF-6951
aF-3733
aF988
aF2047
aF-357
aF-2957
aF-3203
aF-815
aF1124
aF202
aF-2411
aF-4629
aF-4833
aF-2343
aF1012
aF2463
aF1291
aF-1084
aF-2715
aF-3184
aF-3144
aF-3062
aF-2205
aF-74
aF2215
aF2354
aF-601
aF-4774
aF-6986
aF-4877
aF463
aF3666
aF1954
aF-2365
aF-5491
aF-4234
aF348
aF2631
aF49
aF-4674
aF-6903
aF-3853
aF1837
aF4063
aF1809
aF-2244
aF-5393
aF-6014
aF-4490
aF-1878
aF1051
aF3188
aF3269
aF572
aF-4092
aF-7452
aF-6976
aF-2757
aF2155
aF3902
aF2145
aF-1750
aF-5632
aF-6344
aF-2651
aF2139
aF3442
aF303
aF-4396
aF-6633
aF-3953
aF1320
aF3589
aF1630
aF-2341
aF-5534
aF-6188
aF-4431
aF-1126
aF2208
aF3899
aF2767
aF-1130
aF-5258
aF-7001
aF-5314
aF-1190
aF1832
aF2652
aF1897
aF-575
aF-4102
aF-6426
aF-4878
aF-123
aF3130
aF2072
aF-1751
aF-4947
aF-4804
aF-1384
aF1964
aF2103
aF-716
aF-4287
aF-6099
aF-4009
aF1015
aF3614
aF1314
aF-3694
aF-7027
aF-5188
aF551
aF3851
aF1719
aF-2864
aF-5850
aF-4906
aF-852
aF1954
aF1252
aF-1665
aF-4423
aF-4555
aF-1651
aF1497
aF1728
aF-324
aF-2058
aF-1953
aF-1068
aF-1856
aF-4352
aF-4859
aF-880
aF3503
aF3744
aF-632
aF-6211
aF-8055
aF-4459
aF1424
aF3909
aF2305
aF-1244
aF-4095
aF-4908
aF-3613
aF-1120
aF564
aF672
aF45
aF-718
aF-1770
aF-3105
aF-4167
aF-3299
aF179
aF3087
aF2129
aF-2004
aF-6050
aF-6475
aF-2239
aF2659
aF3557
aF634
aF-3573
aF-6528
aF-6072
aF-1945
aF2546
aF3676
aF926
aF-3767
aF-6665
aF-5143
aF-428
aF2767
aF2059
aF-911
aF-4198
aF-5540
aF-3676
aF-175
aF1946
aF1377
aF-1337
aF-4031
aF-4323
aF-2126
aF326
aF1064
aF485
aF-327
aF-1477
aF-3394
aF-5273
aF-4931
aF-947
aF3507
aF4231
aF697
aF-4871
aF-8232
aF-6392
aF-715
aF3336
aF2773
aF-596
aF-3487
aF-3070
aF-284
aF960
aF-1293
aF-4998
aF-6236
aF-2784
aF2395
aF4073
aF1576
aF-3162
aF-6632
aF-6187
aF-2744
aF661
aF1939
aF1906
aF1343
aF-632
aF-3962
aF-6693
aF-6643
aF-2558
aF2884
aF5033
aF2940
aF-2610
aF-7903
aF-8651
aF-3890
aF2686
aF4701
aF2200
aF-2999
aF-6693
aF-6457
aF-1734
aF3125
aF4018
aF1362
aF-3703
aF-7455
aF-7809
aF-4816
aF527
aF4314
aF4428
aF1408
aF-4098
aF-8365
aF-8152
aF-3135
aF3037
aF4889
aF2481
aF-1747
aF-5436
aF-6378
aF-4206
aF-506
aF1678
aF1105
aF-857
aF-2260
aF-1716
aF-306
aF-380
aF-2136
aF-3622
aF-3017
aF-657
aF1049
aF855
aF-404
aF-1598
aF-2298
aF-2565
aF-2499
aF-1785
aF-387
aF859
aF1029
aF-271
aF-2424
aF-3971
aF-3406
aF-1228
aF282
aF-149
aF-1523
aF-2087
aF-1258
aF45
aF508
aF-284
aF-1569
aF-2913
aF-4022
aF-3995
aF-1692
aF1826
aF3309
aF1431
aF-2778
aF-6404
aF-6384
aF-2635
aF1388
aF2951
aF2272
aF65
aF-2870
aF-5116
aF-5618
aF-3548
aF149
aF2607
aF2664
aF512
aF-3121
aF-6260
aF-6602
aF-2951
aF2315
aF4073
aF1487
aF-3258
aF-6637
aF-5615
aF-823
aF2795
aF2447
aF-621
aF-4423
aF-6474
aF-4767
aF-271
aF3109
aF3133
aF446
aF-3243
aF-5870
aF-6316
aF-4405
aF-502
aF3388
aF4491
aF1660
aF-4154
aF-8434
aF-7494
aF-1521
aF4178
aF4175
aF188
aF-4611
aF-6847
aF-4869
aF-553
aF1842
aF1099
aF-1425
aF-3637
aF-3026
aF46
aF1881
aF62
aF-3873
aF-6078
aF-3838
aF794
aF2812
aF1273
aF-1321
aF-2934
aF-3131
aF-2851
aF-2372
aF-1027
aF747
aF1241
aF-211
aF-2501
aF-4180
aF-4111
aF-2057
aF815
aF2502
aF1593
aF-1768
aF-5479
aF-6346
aF-2587
aF2550
aF4149
aF1371
aF-3447
aF-7110
aF-7131
aF-2952
aF2207
aF4733
aF3624
aF-735
aF-6419
aF-9262
aF-6038
aF977
aF4780
aF3574
aF-705
aF-5438
aF-7436
aF-5651
aF-1115
aF2683
aF3571
aF1812
aF-2237
aF-6222
aF-6925
aF-3291
aF2185
aF4099
aF1481
aF-3102
aF-6642
aF-6437
aF-1892
aF2721
aF3352
aF283
aF-4302
aF-6636
aF-4043
aF1055
aF3459
aF1568
aF-2597
aF-5598
aF-4631
aF-596
aF1863
aF754
aF-1973
aF-3760
aF-2940
aF-430
aF823
aF-193
aF-2001
aF-2700
aF-1420
aF56
aF-229
aF-1719
aF-2341
aF-1136
aF342
aF-190
aF-2599
aF-3973
aF-2051
aF1164
aF1986
aF-547
aF-4271
aF-5654
aF-3202
aF659
aF2468
aF1534
aF-606
aF-2619
aF-4007
aF-3848
aF-2285
aF-541
aF338
aF512
aF141
aF-564
aF-1717
aF-3674
aF-4659
aF-2451
aF2092
aF3752
aF733
aF-4362
aF-7566
aF-5926
aF-468
aF3462
aF3031
aF-121
aF-3897
aF-6194
aF-5276
aF-1407
aF2519
aF3451
aF791
aF-3937
aF-7210
aF-5988
aF-541
aF3911
aF3744
aF-27
aF-4968
aF-7717
aF-6546
aF-1760
aF3075
aF4460
aF2670
aF-1167
aF-5850
aF-8447
aF-6663
aF-1061
aF4200
aF5062
aF1721
aF-3880
aF-7879
aF-7660
aF-2966
aF2493
aF4177
aF2456
aF-1531
aF-5350
aF-6100
aF-3633
aF-243
aF1283
aF347
aF-1106
aF-1367
aF-933
aF-1142
aF-2221
aF-2964
aF-2053
aF-333
aF193
aF-500
aF-1131
aF-756
aF-186
aF-995
aF-3010
aF-4189
aF-2580
aF895
aF2730
aF1140
aF-2931
aF-6530
aF-6318
aF-1356
aF3595
aF4176
aF469
aF-5218
aF-8185
aF-6105
aF178
aF4539
aF4361
aF860
aF-4574
aF-8108
aF-8265
aF-4501
aF1632
aF4951
aF4409
aF316
aF-5510
aF-8693
aF-7362
aF-1814
aF3748
aF4932
aF2011
aF-3723
aF-8283
aF-7767
aF-1946
aF4067
aF4409
aF104
aF-5193
aF-7300
aF-4688
aF39
aF2589
aF2063
aF-285
aF-3732
aF-6306
aF-5751
aF-1414
aF3183
aF3919
aF723
aF-4127
aF-7120
aF-6475
aF-2825
aF1297
aF3518
aF3284
aF636
aF-3431
aF-6438
aF-6198
aF-2829
aF779
aF1725
aF707
aF-667
aF-1742
aF-2302
aF-2382
aF-2098
aF-1525
aF-783
aF-112
aF574
aF562
aF-717
aF-3155
aF-5521
aF-5321
aF-1619
aF2619
aF3495
aF995
aF-3014
aF-6143
aF-6157
aF-2760
aF1149
aF2995
aF2328
aF-186
aF-3101
aF-4859
aF-4657
aF-2772
aF-406
aF1179
aF1542
aF699
aF-1480
aF-4615
aF-6195
aF-3971
aF972
aF4261
aF3447
aF-687
aF-5609
aF-7787
aF-5798
aF-98
aF4096
aF4324
aF880
aF-4567
aF-8016
aF-7613
aF-3448
aF2022
aF4489
aF3637
aF303
aF-4752
aF-8113
aF-7727
aF-3058
aF2843
aF4531
aF2689
aF-2083
aF-6892
aF-8089
aF-4860
aF951
aF4387
aF3814
aF-144
aF-5141
aF-7089
aF-4341
aF596
aF2605
aF416
aF-3002
aF-4125
aF-2083
aF130
aF127
aF-1084
aF-1949
aF-1986
aF-1757
aF-1410
aF-159
aF1312
aF906
aF-1835
aF-4974
aF-5622
aF-2804
aF815
aF2057
aF1124
aF-381
aF-1925
aF-3564
aF-4251
aF-2437
aF979
aF2639
aF531
aF-3908
aF-6089
aF-3510
aF1163
aF3011
aF1045
aF-2582
aF-5367
aF-5171
aF-2092
aF1649
aF3421
aF1865
aF-2413
aF-6626
aF-7237
aF-3089
aF2434
aF4381
aF2451
aF-1949
aF-6551
aF-8369
aF-5970
aF-113
aF4458
aF4719
aF1362
aF-4156
aF-8131
aF-7901
aF-3296
aF2765
aF5168
aF2966
aF-2897
aF-8181
aF-8480
aF-2758
aF3656
aF4849
aF1057
aF-4758
aF-7411
aF-5331
aF-944
aF1776
aF1609
aF489
aF-580
aF-2000
aF-3852
aF-4810
aF-3922
aF-1289
aF1790
aF2801
aF1484
aF-1571
aF-5321
aF-6992
aF-4717
aF-62
aF2788
aF2012
aF-75
aF-1159
aF-1400
aF-2494
aF-4954
aF-6436
aF-4007
aF1328
aF4386
aF3236
aF-1077
aF-5989
aF-7928
aF-5375
aF60
aF3559
aF2963
aF-55
aF-3197
aF-4454
aF-3963
aF-3083
aF-2133
aF-635
aF1148
aF2161
aF1207
aF-1666
aF-4615
aF-5214
aF-3166
aF-523
aF814
aF571
aF-372
aF-1416
aF-2253
aF-2347
aF-1348
aF-232
aF-327
aF-1632
aF-2801
aF-2385
aF-619
aF874
aF851
aF-515
aF-2235
aF-3565
aF-3997
aF-2899
aF-466
aF1702
aF2101
aF11
aF-3682
aF-6095
aF-5120
aF-1102
aF2838
aF3675
aF1167
aF-3175
aF-6785
aF-7313
aF-3486
aF1970
aF4068
aF2028
aF-2916
aF-6950
aF-6393
aF-1407
aF3182
aF3581
aF616
aF-3450
aF-6218
aF-6102
aF-3092
aF851
aF3046
aF2731
aF295
aF-3566
aF-7084
aF-7375
aF-3439
aF2259
aF4962
aF2534
aF-2804
aF-7019
aF-6837
aF-2399
aF1900
aF2261
aF-426
aF-2959
aF-2832
aF-1053
aF-169
aF-1116
aF-2825
aF-3563
aF-2249
aF470
aF2474
aF2184
aF-706
aF-4771
aF-6924
aF-5237
aF-706
aF2778
aF3034
aF603
aF-2996
aF-5439
aF-5513
aF-3166
aF242
aF2467
aF2393
aF113
aF-3396
aF-6197
aF-5940
aF-2042
aF2370
aF3326
aF601
aF-3818
aF-6561
aF-5256
aF-651
aF2817
aF2793
aF214
aF-3797
aF-6844
aF-6374
aF-1799
aF3371
aF4426
aF941
aF-4640
aF-8114
aF-6708
aF-1208
aF3353
aF3863
aF1381
aF-2673
aF-6131
aF-7041
aF-4462
aF553
aF3974
aF3297
aF-386
aF-4840
aF-7395
aF-6425
aF-2323
aF2117
aF4088
aF3118
aF-669
aF-5313
aF-7426
aF-5373
aF-772
aF2106
aF1547
aF-232
aF-1263
aF-1458
aF-2228
aF-3790
aF-4392
aF-2589
aF858
aF3194
aF2384
aF-1155
aF-5472
aF-7573
aF-4950
aF995
aF4538
aF3201
aF-1830
aF-6584
aF-7109
aF-3282
aF1135
aF2328
aF1130
aF-614
aF-2393
aF-3445
aF-3648
aF-2718
aF-552
aF1199
aF1399
aF305
aF-1690
aF-4288
aF-6446
aF-6023
aF-1569
aF3641
aF4897
aF1707
aF-3920
aF-7711
aF-7089
aF-3917
aF-555
aF1504
aF2810
aF3581
aF1733
aF-3345
aF-8023
aF-8387
aF-3858
aF2521
aF4895
aF2945
aF-2116
aF-6986
aF-8410
aF-4554
aF1739
aF4886
aF3551
aF-1294
aF-6414
aF-8051
aF-4589
aF1190
aF3484
aF1516
aF-2041
aF-4838
aF-5015
aF-2435
aF831
aF2615
aF2149
aF-689
aF-4669
aF-7164
aF-6164
aF-1545
aF3176
aF4483
aF2043
aF-3125
aF-7777
aF-8402
aF-4265
aF1811
aF4760
aF3172
aF-860
aF-5191
aF-6928
aF-4774
aF-802
aF1468
aF1105
aF-266
aF-1132
aF-1048
aF-1110
aF-2364
aF-3835
aF-3923
aF-1805
aF1331
aF3019
aF1711
aF-2095
aF-5759
aF-6523
aF-3591
aF823
aF2981
aF1825
aF-1476
aF-4739
aF-5998
aF-4197
aF-95
aF3118
aF3559
aF1241
aF-3078
aF-6964
aF-8057
aF-5390
aF304
aF4282
aF4465
aF708
aF-5315
aF-8654
aF-7536
aF-1031
aF4824
aF5684
aF2589
aF-3153
aF-8389
aF-9830
aF-7475
aF-1794
aF3937
aF5335
aF3593
aF-1513
aF-7490
aF-9729
aF-7976
aF-1543
aF4936
aF5977
aF3018
aF-2917
aF-8082
aF-8734
aF-5289
aF105
aF2959
aF2585
aF1738
aF420
aF-2592
aF-5972
aF-7068
aF-4239
aF974
aF3902
aF2955
aF-211
aF-3971
aF-6526
aF-6339
aF-3217
aF912
aF2953
aF1952
aF-1117
aF-4252
aF-5285
aF-3664
aF-519
aF1801
aF1943
aF0
aF-3195
aF-5580
aF-4855
aF-1269
aF1909
aF2066
aF-230
aF-2754
aF-3687
aF-2751
aF-1183
aF-398
aF-599
aF-1089
aF-1344
aF-969
aF-197
aF-302
aF-1706
aF-2923
aF-2682
aF-1214
aF-156
aF-528
aF-1471
aF-1649
aF-1138
aF-999
aF-1368
aF-1307
aF-477
aF-169
aF-1425
aF-3293
aF-3154
aF-353
aF1962
aF1097
aF-2724
aF-6473
aF-6504
aF-1776
aF3105
aF4342
aF1927
aF-3544
aF-8020
aF-8387
aF-3357
aF3397
aF5748
aF3496
aF-1932
aF-7424
aF-9261
aF-6987
aF-1532
aF3776
aF5091
aF2696
aF-2584
aF-7625
aF-8541
aF-4719
aF1603
aF4711
aF3255
aF-745
aF-5024
aF-6718
aF-4979
aF-1496
aF712
aF617
aF7
aF169
aF532
aF-422
aF-3270
aF-6007
aF-5480
aF-832
aF3480
aF3524
aF-11
aF-4819
aF-7354
aF-5646
aF-1177
aF2390
aF3111
aF1383
aF-1792
aF-4644
aF-5468
aF-3672
aF-827
aF815
aF1039
aF890
aF420
aF-1400
aF-4831
aF-7564
aF-6027
aF51
aF4490
aF3892
aF-428
aF-5908
aF-8223
aF-5951
aF-517
aF3425
aF3515
aF1254
aF-1980
aF-4516
aF-4967
aF-3249
aF-947
aF33
aF-509
aF-1131
aF-675
aF267
aF-264
aF-1954
aF-3014
aF-2608
aF-1497
aF-1147
aF-1417
aF-1233
aF-264
aF582
aF13
aF-2238
aF-4440
aF-4341
aF-1365
aF2251
aF3307
aF510
aF-4426
aF-7375
aF-5106
aF687
aF3799
aF1794
aF-2703
aF-5938
aF-5255
aF-1384
aF1621
aF1388
aF-870
aF-2838
aF-2844
aF-1234
aF-138
aF-1251
aF-3309
aF-3244
aF-363
aF2537
aF2153
aF-1940
aF-6431
aF-7298
aF-3120
aF2379
aF4041
aF2346
aF-1161
aF-4907
aF-6663
aF-6010
aF-3311
aF150
aF2284
aF2610
aF1338
aF-1209
aF-4409
aF-6735
aF-6005
aF-1556
aF3200
aF3849
aF468
aF-4202
aF-6441
aF-4337
aF-539
aF771
aF-459
aF-1583
aF-1150
aF-14
aF-7
aF-1542
aF-3429
aF-4244
aF-3036
aF-163
aF2475
aF2873
aF308
aF-3980
aF-6509
aF-4671
aF-387
aF1955
aF845
aF-1661
aF-3431
aF-3485
aF-1975
aF11
aF1431
aF1257
aF-1024
aF-4201
aF-5593
aF-3577
aF450
aF2769
aF1447
aF-2007
aF-5081
aF-5522
aF-2677
aF1077
aF2653
aF1291
aF-1966
aF-4941
aF-5435
aF-2942
aF535
aF2487
aF1913
aF-863
aF-4404
aF-6178
aF-4286
aF75
aF2920
aF2355
aF-985
aF-4667
aF-5822
aF-4315
aF-1188
aF1575
aF2567
aF1927
aF-250
aF-3287
aF-5789
aF-6699
aF-5204
aF-1265
aF2731
aF4093
aF2782
aF-1433
aF-6277
aF-8096
aF-5848
aF88
aF4528
aF4559
aF1294
aF-3610
aF-7060
aF-7437
aF-5412
aF-2045
aF1463
aF3849
aF4076
aF1218
aF-3916
aF-8008
aF-8118
aF-3664
aF2136
aF4319
aF2683
aF-332
aF-3411
aF-5539
aF-5994
aF-4688
aF-1023
aF3162
aF4177
aF1002
aF-4184
aF-7672
aF-6875
aF-1796
aF3206
aF4386
aF1540
aF-3906
aF-7707
aF-7316
aF-2462
aF2713
aF3656
aF1203
aF-2104
aF-4175
aF-4276
aF-3171
aF-1743
aF-96
aF1484
aF1784
aF-33
aF-2977
aF-5090
aF-5027
aF-2823
aF-31
aF1517
aF1405
aF250
aF-1191
aF-2513
aF-3515
aF-3822
aF-2839
aF-655
aF1404
aF1606
aF-449
aF-3107
aF-3944
aF-2122
aF175
aF167
aF-1934
aF-3749
aF-3275
aF-609
aF1899
aF2422
aF810
aF-2531
aF-6118
aF-7363
aF-4713
aF859
aF4374
aF3543
aF-425
aF-5704
aF-8703
aF-7603
aF-2466
aF3294
aF5327
aF3429
aF-1103
aF-5760
aF-7322
aF-5288
aF-2185
aF-641
aF62
aF1895
aF3208
aF1611
aF-2831
aF-7033
aF-7711
aF-3449
aF2587
aF5079
aF3486
aF-1863
aF-7514
aF-8980
aF-5776
aF340
aF4222
aF3852
aF1160
aF-2867
aF-6501
aF-7975
aF-6139
aF-807
aF4384
aF5688
aF2598
aF-3641
aF-8694
aF-9137
aF-4262
aF2751
aF5658
aF3912
aF-1900
aF-7712
aF-9195
aF-5593
aF1064
aF4771
aF4362
aF2349
aF-692
aF-4416
aF-7681
aF-8579
aF-5538
aF1028
aF5173
aF4876
aF1020
aF-5502
aF-9464
aF-8991
aF-3693
aF3487
aF5853
aF3879
aF-1441
aF-6847
aF-8261
aF-6060
aF-2226
aF507
aF1831
aF3203
aF3396
aF456
aF-4557
aF-8035
aF-7547
aF-2960
aF2559
aF4739
aF3211
aF-1321
aF-6410
aF-8179
aF-4901
aF905
aF3540
aF1483
aF-2406
aF-4765
aF-3569
aF-862
aF-73
aF-837
aF-1183
aF-672
aF-91
aF-639
aF-2813
aF-4141
aF-2952
aF-75
aF2142
aF1591
aF-1578
aF-5213
aF-6603
aF-3657
aF1579
aF4020
aF1939
aF-2585
aF-5677
aF-4379
aF-443
aF1272
aF-712
aF-3590
aF-4153
aF-1514
aF1722
aF1945
aF-538
aF-3287
aF-4589
aF-3457
aF-1151
aF-44
aF-505
aF-873
aF-317
aF682
aF771
aF-1509
aF-5065
aF-6864
aF-4517
aF896
aF4324
aF3104
aF-1238
aF-5357
aF-6525
aF-4607
aF-1053
aF1574
aF2604
aF2346
aF215
aF-3730
aF-7092
aF-7218
aF-3687
aF1417
aF4114
aF3760
aF732
aF-4525
aF-8586
aF-8174
aF-2767
aF3433
aF4771
aF1748
aF-2815
aF-5874
aF-5730
aF-3706
aF-1847
aF-551
aF1028
aF2438
aF2031
aF-558
aF-4059
aF-6607
aF-6714
aF-2976
aF2567
aF5303
aF3770
aF-1756
aF-7711
aF-9281
aF-6170
aF180
aF4623
aF4557
aF1944
aF-3071
aF-7555
aF-8322
aF-5179
aF477
aF3989
aF3837
aF1583
aF-2186
aF-6195
aF-8366
aF-6986
aF-1733
aF3815
aF5090
aF2236
aF-2525
aF-6404
aF-7439
aF-5868
aF-2296
aF1843
aF3927
aF2812
aF-703
aF-4473
aF-6152
aF-5460
aF-3662
aF-1580
aF991
aF3408
aF3382
aF-356
aF-5550
aF-7611
aF-4620
aF697
aF2993
aF1339
aF-1135
aF-2235
aF-2296
aF-2486
aF-3052
aF-2759
aF-917
aF791
aF1275
aF833
aF-930
aF-3787
aF-5862
aF-4675
aF97
aF3873
aF2806
aF-1942
aF-6434
aF-7137
aF-3359
aF1517
aF3427
aF2268
aF-438
aF-3415
aF-5396
aF-5482
aF-3192
aF449
aF2504
aF2074
aF-187
aF-3173
aF-4751
aF-4229
aF-2780
aF-1287
aF-248
aF522
aF1326
aF1407
aF145
aF-2568
aF-5640
aF-6654
aF-4058
aF649
aF3708
aF3465
aF292
aF-4235
aF-7174
aF-6509
aF-2760
aF1068
aF2353
aF1734
aF872
aF-190
aF-2059
aF-4632
aF-6515
aF-5495
aF-1279
aF2560
aF3126
aF1601
aF-1168
aF-4176
aF-6068
aF-6158
aF-3579
aF527
aF2996
aF2625
aF423
aF-2452
aF-4511
aF-5102
aF-4531
aF-2821
aF-43
aF2345
aF2529
aF336
aF-2723
aF-4797
aF-4595
aF-2507
aF-341
aF541
aF461
aF282
aF172
aF-687
aF-2729
aF-4863
aF-5279
aF-2885
aF1033
aF3339
aF2367
aF-1323
aF-5325
aF-6583
aF-3397
aF1506
aF3362
aF746
aF-4028
aF-6708
aF-4374
aF832
aF3197
aF939
aF-3240
aF-4945
aF-3034
aF-681
aF-597
aF-1832
aF-1343
aF1259
aF2812
aF489
aF-4036
aF-7335
aF-6925
aF-2463
aF2726
aF4349
aF2379
aF-2120
aF-6321
aF-6949
aF-4030
aF-553
aF605
aF702
aF1876
aF3077
aF1537
aF-3367
aF-7987
aF-8806
aF-4428
aF2440
aF5671
aF4608
aF69
aF-5741
aF-8805
aF-7712
aF-3396
aF1344
aF3256
aF3003
aF1846
aF-473
aF-4138
aF-7727
aF-8347
aF-4157
aF2295
aF5077
aF3177
aF-1540
aF-6144
aF-7282
aF-4527
aF-175
aF2493
aF2256
aF-231
aF-3505
aF-5055
aF-2996
aF697
aF1753
aF-607
aF-3950
aF-5057
aF-2592
aF916
aF2046
aF722
aF-1424
aF-2700
aF-2485
aF-1896
aF-2064
aF-2584
aF-2007
aF-128
aF1407
aF1359
aF-718
aF-3816
aF-5313
aF-3430
aF193
aF1743
aF301
aF-2332
aF-3599
aF-1832
aF693
aF890
aF-1373
aF-4521
aF-5478
aF-2502
aF1912
aF3064
aF161
aF-3569
aF-4418
aF-1654
aF819
aF-344
aF-3477
aF-4550
aF-1699
aF2086
aF2541
aF-204
aF-3849
aF-6232
aF-5784
aF-2352
aF1890
aF3983
aF2745
aF-1482
aF-5960
aF-7163
aF-4404
aF-508
aF1346
aF1601
aF1798
aF1140
aF-1778
aF-5983
aF-7969
aF-5301
aF561
aF4335
aF3991
aF755
aF-3300
aF-7008
aF-8444
aF-5607
aF372
aF4915
aF4923
aF1075
aF-4485
aF-8015
aF-7882
aF-4499
aF650
aF4070
aF4818
aF2686
aF-2859
aF-7805
aF-9087
aF-6005
aF946
aF5279
aF5087
aF1087
aF-5428
aF-9699
aF-8967
aF-3429
aF3298
aF5655
aF3816
aF136
aF-3828
aF-6220
aF-6772
aF-5681
aF-2482
aF1614
aF4241
aF4116
aF750
aF-4618
aF-8070
aF-7488
aF-3167
aF2471
aF4360
aF2788
aF-1320
aF-5795
aF-7265
aF-5542
aF-2631
aF-144
aF1599
aF2563
aF1824
aF-1128
aF-5186
aF-7480
aF-5586
aF-339
aF3901
aF4120
aF671
aF-3888
aF-6283
aF-5258
aF-2050
aF734
aF1446
aF489
aF-967
aF-2128
aF-2862
aF-3291
aF-3023
aF-1210
aF1400
aF2576
aF937
aF-3082
aF-6558
aF-6122
aF-1420
aF2988
aF3009
aF-427
aF-3960
aF-4952
aF-2981
aF-567
aF-212
aF-1294
aF-1797
aF-718
aF1101
aF1791
aF35
aF-3595
aF-6688
aF-6697
aF-2476
aF2652
aF4263
aF2315
aF-1057
aF-4028
aF-5895
aF-6602
aF-5323
aF-1143
aF3574
aF5027
aF2737
aF-2557
aF-7368
aF-8559
aF-6178
aF-872
aF3527
aF4606
aF3517
aF453
aF-3923
aF-7203
aF-7959
aF-6194
aF-1663
aF3207
aF4782
aF3412
aF-1059
aF-6566
aF-8852
aF-7139
aF-1725
aF3481
aF4820
aF3300
aF52
aF-4008
aF-6994
aF-7158
aF-4116
aF613
aF3507
aF3330
aF922
aF-3169
aF-6963
aF-7784
aF-4650
aF772
aF4183
aF3300
aF-152
aF-4167
aF-6624
aF-6025
aF-2427
aF1759
aF3404
aF1999
aF-1746
aF-5642
aF-6653
aF-3731
aF642
aF2504
aF1787
aF147
aF-1943
aF-4231
aF-6063
aF-5667
aF-1715
aF3162
aF4571
aF2054
aF-3225
aF-7778
aF-8278
aF-3996
aF2345
aF4927
aF2966
aF-1561
aF-5417
aF-5904
aF-3852
aF-1896
aF-1123
aF-286
aF1343
aF2399
aF1257
aF-2260
aF-6062
aF-7315
aF-4758
aF303
aF3754
aF3621
aF396
aF-3546
aF-5664
aF-4895
aF-2592
aF-1421
aF-1019
aF664
aF3325
aF3204
aF-1146
aF-6574
aF-8681
aF-5616
aF711
aF4194
aF3301
aF358
aF-3157
aF-5457
aF-5805
aF-4485
aF-1557
aF1196
aF1774
aF658
aF-944
aF-2048
aF-2592
aF-3315
aF-3748
aF-2598
aF-265
aF1308
aF1200
aF-161
aF-1854
aF-2887
aF-3100
aF-2873
aF-1867
aF-173
aF978
aF513
aF-1334
aF-3251
aF-3685
aF-2325
aF-362
aF795
aF788
aF-105
aF-1545
aF-3422
aF-4683
aF-3543
aF-112
aF2714
aF2343
aF-958
aF-4940
aF-6708
aF-4593
aF141
aF3256
aF2865
aF47
aF-3390
aF-5413
aF-5019
aF-2855
aF-353
aF1253
aF1333
aF389
aF-1354
aF-3600
aF-5105
aF-4516
aF-1374
aF2117
aF2786
aF242
aF-3345
aF-5102
aF-3624
aF-689
aF482
aF-752
aF-2286
aF-1783
aF270
aF1046
aF-844
aF-4181
aF-5835
aF-3668
aF694
aF3454
aF2734
aF-836
aF-4451
aF-5540
aF-3849
aF-1349
aF-336
aF-566
aF-271
aF885
aF1010
aF-1085
aF-4243
aF-6015
aF-4264
aF118
aF3155
aF2897
aF-208
aF-4375
aF-6675
aF-5354
aF-1479
aF1520
aF1726
aF469
aF-814
aF-1899
aF-3142
aF-4067
aF-3914
aF-1838
aF1040
aF1999
aF630
aF-1197
aF-2162
aF-2500
aF-3285
aF-3895
aF-2753
aF-143
aF1767
aF1535
aF-176
aF-1997
aF-3387
aF-4090
aF-3437
aF-1050
aF1755
aF2643
aF447
aF-3210
aF-5708
aF-5109
aF-1849
aF1067
aF1855
aF1135
aF-522
aF-3178
aF-4992
aF-4179
aF-1158
aF1680
aF2060
aF335
aF-1783
aF-3318
aF-4307
aF-4309
aF-2598
aF455
aF2396
aF1627
aF-1201
aF-4026
aF-4525
aF-2592
aF-120
aF1178
aF751
aF-1303
aF-3802
aF-4307
aF-1885
aF1175
aF1489
aF-1180
aF-3888
aF-3824
aF-1028
aF849
aF-364
aF-2759
aF-3525
aF-1711
aF580
aF926
aF-249
aF-1493
aF-2427
aF-3238
aF-3658
aF-2915
aF-943
aF1113
aF1857
aF937
aF-1079
aF-3655
aF-5449
aF-4504
aF-807
aF2521
aF2637
aF-535
aF-4837
aF-6557
aF-3536
aF1270
aF2545
aF-177
aF-3652
aF-4166
aF-880
aF2021
aF875
aF-3121
aF-5949
aF-4687
aF-391
aF2439
aF1798
aF-576
aF-2301
aF-2939
aF-3384
aF-3792
aF-3292
aF-1121
aF1724
aF3048
aF2151
aF-908
aF-5343
aF-8322
aF-7099
aF-1169
aF4573
aF4985
aF601
aF-5625
aF-8763
aF-6469
aF-1016
aF2584
aF2751
aF1700
aF108
aF-2149
aF-4815
aF-6230
aF-4399
aF71
aF2945
aF2213
aF-609
aF-3479
aF-4935
aF-4439
aF-2468
aF128
aF1950
aF1963
aF-37
aF-3095
aF-5169
aF-4577
aF-1622
aF808
aF1025
aF30
aF-984
aF-1710
aF-2148
aF-2908
aF-3709
aF-2887
aF96
aF2684
aF2619
aF-352
aF-4731
aF-7297
aF-5862
aF-999
aF3194
aF3567
aF768
aF-3461
aF-6426
aF-6045
aF-2625
aF940
aF2010
aF1128
aF101
aF-872
aF-2695
aF-4918
aF-5738
aF-3096
aF1707
aF3872
aF1934
aF-2766
aF-7059
aF-7549
aF-3265
aF2276
aF4287
aF2300
aF-1712
aF-5198
aF-5617
aF-2893
aF-32
aF308
aF-1066
aF-1883
aF-1034
aF118
aF-331
aF-2125
aF-3374
aF-2558
aF-517
aF319
aF-817
aF-1952
aF-1476
aF-375
aF-7
aF-1380
aF-3708
aF-4656
aF-2747
aF898
aF3201
aF2153
aF-1803
aF-6028
aF-7283
aF-3978
aF1493
aF4026
aF2324
aF-1779
aF-5371
aF-5674
aF-3004
aF-583
aF70
aF-189
aF-402
aF-349
aF-1043
aF-2499
aF-3204
aF-2187
aF-464
aF419
aF168
aF-582
aF-1530
aF-2831
aF-3639
aF-3369
aF-1580
aF892
aF1573
aF-79
aF-2039
aF-2451
aF-1761
aF-1667
aF-2573
aF-2684
aF-400
aF2407
aF2316
aF-1262
aF-5775
aF-7578
aF-4987
aF435
aF4069
aF3797
aF202
aF-5043
aF-8171
aF-6588
aF-968
aF3630
aF3582
aF541
aF-3039
aF-5259
aF-5681
aF-4666
aF-1812
aF1901
aF3751
aF2175
aF-2142
aF-6489
aF-7594
aF-4170
aF1132
aF3949
aF3474
aF473
aF-3908
aF-6908
aF-6281
aF-2727
aF495
aF961
aF185
aF469
aF1013
aF-302
aF-3742
aF-6506
aF-5382
aF-715
aF2913
aF2459
aF-538
aF-2958
aF-3459
aF-2947
aF-2809
aF-2883
aF-1948
aF266
aF2137
aF1907
aF-296
aF-3485
aF-5730
aF-5329
aF-1943
aF1598
aF2553
aF818
aF-2477
aF-4837
aF-4216
aF-1299
aF867
aF363
aF-1564
aF-2749
aF-2246
aF-818
aF-173
aF-670
aF-1221
aF-973
aF-283
aF-664
aF-2435
aF-3953
aF-3299
aF-593
aF1317
aF652
aF-1643
aF-3222
aF-2390
aF-274
aF568
aF-688
aF-2476
aF-3039
aF-2022
aF-364
aF439
aF-4
aF-1266
aF-3100
aF-3879
aF-2230
aF617
aF2036
aF992
aF-1453
aF-3615
aF-4365
aF-3751
aF-2330
aF-375
aF1808
aF2916
aF1665
aF-2206
aF-6664
aF-8259
aF-4900
aF1553
aF5198
aF3895
aF-427
aF-4766
aF-6654
aF-5581
aF-2353
aF1021
aF2450
aF1345
aF-1484
aF-4365
aF-4900
aF-2393
aF385
aF710
aF-827
aF-1706
aF-981
aF-202
aF-1065
aF-2558
aF-2414
aF-697
aF197
aF-892
aF-2813
aF-3140
aF-983
aF1046
aF615
aF-1620
aF-3800
aF-3912
aF-1398
aF1503
aF2215
aF13
aF-3829
aF-6112
aF-3869
aF1054
aF3114
aF227
aF-4662
aF-6612
aF-3074
aF2257
aF3418
aF371
aF-4027
aF-6304
aF-4794
aF-1282
aF1377
aF1834
aF533
aF-1407
aF-2939
aF-2980
aF-2105
aF-1826
aF-1860
aF-1083
aF344
aF1012
aF-476
aF-3303
aF-4557
aF-2053
aF1819
aF2506
aF-562
aF-4908
aF-7248
aF-5278
aF13
aF3996
aF3873
aF395
aF-4490
aF-7407
aF-6219
aF-1743
aF2510
aF3374
aF1072
aF-2320
aF-4749
aF-5240
aF-3913
aF-1375
aF975
aF1746
aF1141
aF-577
aF-2944
aF-4761
aF-4682
aF-2214
aF972
aF2407
aF1292
aF-1467
aF-3867
aF-3898
aF-1909
aF-331
aF-493
aF-1816
aF-2497
aF-1468
aF424
aF1225
aF-83
aF-2741
aF-4713
aF-3819
aF-454
aF1745
aF738
aF-2135
aF-4141
aF-3242
aF-108
aF1684
aF217
aF-2860
aF-4607
aF-3436
aF-88
aF2142
aF1245
aF-1550
aF-3446
aF-2780
aF-757
aF-405
aF-2517
aF-4228
aF-2407
aF1736
aF3500
aF741
aF-4272
aF-6977
aF-4715
aF371
aF3108
aF1796
aF-1701
aF-4734
aF-4992
aF-2425
aF611
aF1578
aF-80
aF-2883
aF-4089
aF-2311
aF439
aF1010
aF-584
aF-1906
aF-1373
aF-363
aF-1271
aF-3800
aF-4748
aF-1782
aF2760
aF3967
aF637
aF-4872
aF-8379
aF-6851
aF-1075
aF4106
aF4716
aF1567
aF-3827
aF-7906
aF-7530
aF-3190
aF1911
aF3841
aF1866
aF-1881
aF-4891
aF-5551
aF-3204
aF262
aF1462
aF480
aF-952
aF-1635
aF-1618
aF-1844
aF-2642
aF-2580
aF-897
aF726
aF276
aF-1750
aF-3191
aF-2814
aF-1120
aF-4
aF-210
aF-730
aF-618
aF-781
aF-1928
aF-3069
aF-3150
aF-1911
aF-137
aF1094
aF1432
aF661
aF-1760
aF-4954
aF-6740
aF-5154
aF-137
aF4193
aF4529
aF901
aF-4974
aF-8881
aF-7979
aF-2965
aF2656
aF4847
aF3505
aF-329
aF-5322
aF-8358
aF-7259
aF-2180
aF3227
aF4793
aF2679
aF-1324
aF-4996
aF-6502
aF-5715
aF-2844
aF806
aF2816
aF2186
aF-633
aF-3989
aF-5485
aF-3936
aF-933
aF782
aF600
aF-349
aF-1261
aF-1827
aF-1668
aF-841
aF-330
aF-1015
aF-2587
aF-3618
aF-2528
aF218
aF1835
aF890
aF-1802
aF-4198
aF-3814
aF-1123
aF1048
aF910
aF-1230
aF-3386
aF-3385
aF-1013
aF1167
aF676
aF-1951
aF-4021
aF-3322
aF-643
aF548
aF-746
aF-2253
aF-1589
aF929
aF1874
aF-611
aF-4475
aF-6311
aF-4207
aF151
aF2609
aF1700
aF-1072
aF-3751
aF-4176
aF-2310
aF-705
aF-765
aF-1671
aF-1477
aF338
aF1865
aF985
aF-2282
aF-5722
aF-6597
aF-3651
aF1001
aF3478
aF2574
aF-529
aF-3801
aF-5301
aF-4426
aF-2257
aF-617
aF206
aF1254
aF2197
aF1413
aF-1865
aF-5922
aF-7720
aF-5488
aF-95
aF4113
aF4242
aF1183
aF-3764
aF-7748
aF-7900
aF-3382
aF2776
aF4805
aF2007
aF-3176
aF-6970
aF-6205
aF-1878
aF1668
aF1678
aF-461
aF-2345
aF-2885
aF-2193
aF-1036
aF-19
aF332
aF-206
aF-1175
aF-2162
aF-2981
aF-3230
aF-2326
aF-57
aF1923
aF1544
aF-1284
aF-4701
aF-5660
aF-2614
aF1594
aF2511
aF-115
aF-3749
aF-4873
aF-1984
aF1787
aF2052
aF-1578
aF-5818
aF-6847
aF-2594
aF3366
aF4954
aF1180
aF-4927
aF-8523
aF-6236
aF-77
aF3436
aF2099
aF-884
aF-2131
aF-1664
aF-1456
aF-2887
aF-4731
aF-4043
aF-370
aF2678
aF2561
aF-539
aF-4343
aF-5468
aF-3372
aF65
aF1762
aF238
aF-2750
aF-4269
aF-2505
aF1284
aF2866
aF286
aF-4494
aF-7532
aF-5577
aF414
aF4367
aF3547
aF-655
aF-5559
aF-7249
aF-4837
aF-688
aF1658
aF1275
aF34
aF-1010
aF-1962
aF-2657
aF-2589
aF-1724
aF-849
aF-629
aF-755
aF-713
aF-826
aF-1329
aF-1738
aF-1172
aF304
aF537
aF-2098
aF-5554
aF-5971
aF-1598
aF3340
aF3803
aF-17
aF-5406
aF-7848
aF-5008
aF998
aF4035
aF2276
aF-1478
aF-3826
aF-3478
aF-2171
aF-2146
aF-2801
aF-2776
aF-888
aF2160
aF3132
aF661
aF-3629
aF-6508
aF-5501
aF-1046
aF2595
aF2216
aF-1033
aF-4409
aF-4770
aF-1432
aF1566
aF626
aF-2407
aF-4007
aF-2489
aF684
aF1605
aF-627
aF-3177
aF-3394
aF-1555
aF430
aF374
aF-1437
aF-3149
aF-3359
aF-2228
aF-468
aF1199
aF1447
aF-362
aF-3081
aF-4726
aF-4059
aF-1712
aF313
aF1327
aF1801
aF1214
aF-1638
aF-5786
aF-7875
aF-5314
aF583
aF4373
aF3523
aF57
aF-4052
aF-6805
aF-6665
aF-3442
aF1392
aF4017
aF2606
aF-1625
aF-5938
aF-7155
aF-4398
aF416
aF2937
aF2276
aF-294
aF-3907
aF-6234
aF-4963
aF-426
aF3308
aF3050
aF-627
aF-4851
aF-6230
aF-3975
aF-521
aF1334
aF1500
aF769
aF-973
aF-3522
aF-5495
aF-4789
aF-1041
aF2583
aF3153
aF753
aF-2972
aF-5499
aF-4610
aF-1266
aF877
aF-286
aF-2811
aF-3278
aF-343
aF2897
aF2310
aF-2136
aF-6796
aF-7372
aF-2987
aF2420
aF4098
aF1895
aF-2095
aF-5440
aF-6193
aF-4019
aF-324
aF1901
aF1394
aF-761
aF-2618
aF-2775
aF-1571
aF-532
aF-525
aF-1089
aF-1662
aF-1905
aF-1778
aF-1240
aF-383
aF89
aF-435
aF-1684
aF-2803
aF-3112
aF-2450
aF-1159
aF490
aF1999
aF1714
aF-922
aF-4568
aF-7083
aF-6006
aF-1010
aF3955
aF4728
aF889
aF-5182
aF-8588
aF-6264
aF58
aF4098
aF2579
aF-1834
aF-5563
aF-5564
aF-2022
aF1098
aF1166
aF-628
aF-1996
aF-2108
aF-1950
aF-2315
aF-2661
aF-1570
aF798
aF2204
aF1346
aF-1614
aF-5393
aF-7211
aF-4671
aF891
aF4337
aF3335
aF-720
aF-5487
aF-7726
aF-6055
aF-1827
aF1457
aF2350
aF2541
aF1819
aF-73
aF-3283
aF-6792
aF-7622
aF-4358
aF1697
aF5024
aF3844
aF-1024
aF-6708
aF-8587
aF-5902
aF-1041
aF2233
aF2843
aF2199
aF471
aF-2261
aF-4808
aF-5778
aF-4477
aF-1574
aF1145
aF2291
aF1989
aF101
aF-3610
aF-6817
aF-6740
aF-2229
aF3258
aF4387
aF1438
aF-3738
aF-7738
aF-7430
aF-2590
aF3135
aF4805
aF1855
aF-3841
aF-8233
aF-7672
aF-2284
aF3405
aF4276
aF1170
aF-2688
aF-4618
aF-4115
aF-3224
aF-3146
aF-2073
aF1080
aF3148
aF2061
aF-2127
aF-6705
aF-7479
aF-2976
aF2756
aF3966
aF451
aF-3893
aF-4708
aF-1206
aF1763
aF175
aF-4238
aF-6850
aF-4427
aF1406
aF4714
aF3010
aF-2104
aF-7147
aF-7867
aF-3396
aF2135
aF3545
aF1182
aF-1756
aF-2870
aF-2003
aF-1941
aF-3663
aF-4234
aF-1368
aF2276
aF2998
aF72
aF-4352
aF-6570
aF-4817
aF-601
aF2429
aF2170
aF-230
aF-2635
aF-3429
aF-1766
aF325
aF32
aF-2760
aF-5110
aF-4388
aF-188
aF3505
aF3224
aF-418
aF-4571
aF-6544
aF-5265
aF-1432
aF2235
aF3186
aF907
aF-3260
aF-6213
aF-5310
aF-1135
aF2087
aF1711
aF-433
aF-2171
aF-3008
aF-3347
aF-3175
aF-1662
aF830
aF2392
aF1338
aF-1991
aF-5195
aF-6062
aF-3791
aF449
aF3228
aF2609
aF-1073
aF-5524
aF-6825
aF-3212
aF1754
aF3112
aF791
aF-2564
aF-4034
aF-2903
aF-1742
aF-2281
aF-2810
aF-1517
aF787
aF1721
aF502
aF-1954
aF-4294
aF-4850
aF-2582
aF977
aF2519
aF901
aF-2638
aF-5303
aF-4153
aF-262
aF1633
aF130
aF-2383
aF-3125
aF-1130
aF810
aF34
aF-2410
aF-3906
aF-2714
aF186
aF1756
aF831
aF-1336
aF-3484
aF-4549
aF-3440
aF-900
aF981
aF1255
aF370
aF-1544
aF-3339
aF-3647
aF-2467
aF-561
aF888
aF892
aF-286
aF-1876
aF-3400
aF-3956
aF-2611
aF-251
aF1227
aF732
aF-1091
aF-2567
aF-2786
aF-2051
aF-1020
aF-245
aF398
aF352
aF-1345
aF-4016
aF-4971
aF-2132
aF2133
aF3190
aF-133
aF-4980
aF-7149
aF-4471
aF1065
aF4024
aF2511
aF-1593
aF-5750
aF-6959
aF-3789
aF1277
aF3430
aF1483
aF-2230
aF-5206
aF-5576
aF-3150
aF424
aF2628
aF2322
aF-647
aF-4881
aF-6988
aF-4588
aF739
aF3784
aF2377
aF-1476
aF-4966
aF-6084
aF-4576
aF-1362
aF1522
aF2490
aF895
aF-2633
aF-5347
aF-4469
aF-746
aF1517
aF622
aF-1078
aF-1519
aF-1286
aF-2092
aF-3647
aF-3458
aF-775
aF1592
aF1296
aF-868
aF-2420
aF-2451
aF-2021
aF-2035
aF-1905
aF-900
aF168
aF135
aF-762
aF-1474
aF-1589
aF-1913
aF-2810
aF-3041
aF-1571
aF571
aF1546
aF535
aF-1615
aF-3005
aF-3303
aF-2709
aF-984
aF543
aF655
aF-746
aF-3170
aF-4698
aF-3344
aF528
aF3072
aF1959
aF-1746
aF-5982
aF-7441
aF-3945
aF2117
aF4822
aF2584
aF-3316
aF-8316
aF-7912
aF-2239
aF3269
aF3866
aF1355
aF-1492
aF-3724
aF-5074
aF-5372
aF-3695
aF52
aF3228
aF3784
aF1580
aF-2807
aF-7171
aF-8471
aF-5632
aF473
aF4670
aF3961
aF-75
aF-4777
aF-6732
aF-4993
aF-1734
aF370
aF1022
aF1126
aF342
aF-1498
aF-3667
aF-4647
aF-3363
aF-748
aF985
aF1274
aF451
aF-1600
aF-4042
aF-4691
aF-2557
aF412
aF1810
aF928
aF-1353
aF-3190
aF-3161
aF-1877
aF-610
aF-123
aF-591
aF-1727
aF-2069
aF-1023
aF32
aF-517
aF-2363
aF-3372
aF-1740
aF1444
aF2657
aF119
aF-4372
aF-7137
aF-5761
aF-656
aF3810
aF3907
aF320
aF-4429
aF-6909
aF-4918
aF-650
aF1634
aF1109
aF-237
aF-863
aF-975
aF-2405
aF-4737
aF-4954
aF-1436
aF2408
aF2617
aF-576
aF-4504
aF-5734
aF-2601
aF1487
aF1909
aF-924
aF-4336
aF-5388
aF-2247
aF2042
aF3164
aF669
aF-3983
aF-7386
aF-6690
aF-2051
aF2731
aF4076
aF2401
aF-801
aF-4281
aF-6567
aF-6471
aF-3488
aF1259
aF3902
aF3353
aF251
aF-4853
aF-8629
aF-8001
aF-2370
aF4074
aF5438
aF2043
aF-3317
aF-6920
aF-6293
aF-2978
aF-495
aF118
aF457
aF755
aF589
aF-679
aF-3005
aF-4997
aF-4760
aF-2476
aF383
aF2695
aF3152
aF995
aF-3169
aF-6824
aF-7170
aF-3685
aF1508
aF4180
aF3175
aF-713
aF-5762
aF-8328
aF-6291
aF-857
aF3841
aF4544
aF1614
aF-2988
aF-6702
aF-7477
aF-4654
aF500
aF3928
aF3789
aF1107
aF-3239
aF-7004
aF-7923
aF-5454
aF151
aF4251
aF4530
aF950
aF-5428
aF-9126
aF-7426
aF-1478
aF3488
aF4075
aF2126
aF-958
aF-4679
aF-7412
aF-6864
aF-1870
aF3748
aF4775
aF1410
aF-3652
aF-7026
aF-6692
aF-3601
aF-120
aF1852
aF2088
aF917
aF-1097
aF-2849
aF-3502
aF-3632
aF-3423
aF-2092
aF429
aF2363
aF1968
aF-631
aF-3810
aF-5025
aF-3602
aF-1254
aF156
aF439
aF294
aF-427
aF-2070
aF-3487
aF-3222
aF-1794
aF-299
aF540
aF363
aF-11
aF-752
aF-2073
aF-3275
aF-3389
aF-2151
aF-471
aF446
aF303
aF-620
aF-1936
aF-2974
aF-2599
aF-658
aF769
aF63
aF-2211
aF-3664
aF-2559
aF32
aF1449
aF602
aF-1581
aF-3655
aF-4822
aF-4003
aF-709
as.