(dp1
S'peak2peak'
p2
F0.0033181442693964573
sS'samples'
p3
(lp4
F1161
aF-828
aF-4461
aF-7034
aF-5828
aF-964
aF3335
aF3825
aF1088
aF-2821
aF-5144
aF-5151
aF-3831
aF-2146
aF-698
aF1037
aF2793
aF3032
aF929
aF-3315
aF-7471
aF-8921
aF-5291
aF1982
aF5821
aF4794
aF-73
aF-5949
aF-8563
aF-7488
aF-3365
aF1196
aF3520
aF4022
aF2830
aF-402
aF-4540
aF-7692
aF-8486
aF-5704
aF191
aF4790
aF5711
aF2539
aF-3743
aF-8629
aF-9175
aF-4484
aF1656
aF3951
aF3087
aF1274
aF-506
aF-2549
aF-5306
aF-7421
aF-6866
aF-2578
aF2962
aF5280
aF3914
aF-592
aF-5826
aF-8408
aF-7009
aF-1349
aF3294
aF3514
aF924
aF-1732
aF-2428
aF-2020
aF-2523
aF-4361
aF-5377
aF-3018
aF1583
aF4439
aF3501
aF-841
aF-5520
aF-6817
aF-4454
aF-638
aF1185
aF114
aF-849
aF-238
aF813
aF165
aF-3462
aF-7066
aF-6762
aF-1645
aF3961
aF5049
aF1814
aF-3736
aF-7473
aF-7189
aF-3232
aF944
aF1659
aF105
aF-577
aF364
aF1195
aF-490
aF-4314
aF-7227
aF-6050
aF-382
aF4276
aF4285
aF412
aF-4992
aF-7709
aF-5906
aF-1202
aF1933
aF1590
aF-134
aF-986
aF-830
aF-1034
aF-2253
aF-3724
aF-4089
aF-2148
aF729
aF2333
aF1760
aF-299
aF-3145
aF-5215
aF-4970
aF-2895
aF-424
aF1261
aF1625
aF735
aF-500
aF-1998
aF-3504
aF-3993
aF-3187
aF-1399
aF451
aF1147
aF714
aF-410
aF-1852
aF-3319
aF-4488
aF-3802
aF-1445
aF940
aF2160
aF1724
aF-141
aF-2562
aF-4444
aF-4862
aF-3257
aF-720
aF1049
aF1731
aF947
aF-921
aF-2660
aF-4031
aF-4430
aF-3021
aF-362
aF1811
aF2082
aF524
aF-1493
aF-2919
aF-3779
aF-4119
aF-3439
aF-1338
aF1312
aF2411
aF939
aF-1736
aF-4015
aF-4645
aF-3256
aF-1003
aF464
aF804
aF263
aF-776
aF-1462
aF-1655
aF-2139
aF-3335
aF-4253
aF-3303
aF-118
aF3054
aF3204
aF77
aF-4134
aF-6266
aF-4843
aF-1139
aF1416
aF1320
aF39
aF-907
aF-1130
aF-1446
aF-2932
aF-4509
aF-4139
aF-1643
aF1654
aF3278
aF2197
aF-1401
aF-5024
aF-6064
aF-4272
aF-652
aF1772
aF1378
aF-244
aF-1100
aF-1399
aF-2014
aF-3348
aF-4386
aF-3589
aF-430
aF2358
aF2842
aF1159
aF-2242
aF-5427
aF-6288
aF-4045
aF10
aF2499
aF1886
aF-586
aF-2988
aF-3532
aF-2269
aF-1125
aF-1332
aF-2168
aF-1846
aF23
aF1762
aF1417
aF-1237
aF-4298
aF-5535
aF-4095
aF-773
aF1514
aF1410
aF-73
aF-1740
aF-2481
aF-2266
aF-2763
aF-3282
aF-2326
aF225
aF2538
aF2246
aF-875
aF-4538
aF-6210
aF-4502
aF-672
aF1704
aF1370
aF-78
aF-895
aF-1016
aF-1526
aF-3170
aF-4727
aF-3982
aF-467
aF2918
aF3170
aF168
aF-3855
aF-5939
aF-4753
aF-1656
aF296
aF330
aF-59
aF183
aF432
aF-655
aF-3095
aF-5122
aF-4691
aF-1284
aF2296
aF3022
aF697
aF-3001
aF-5344
aF-4839
aF-2360
aF-445
aF-233
aF-346
aF790
aF2264
aF1641
aF-1968
aF-6394
aF-8141
aF-4954
aF1469
aF4679
aF3422
aF-944
aF-5310
aF-6475
aF-4328
aF-1763
aF-1223
aF-1386
aF357
aF3485
aF4371
aF826
aF-5306
aF-9093
aF-8353
aF-1788
aF4394
aF5336
aF2191
aF-3848
aF-7889
aF-7946
aF-4452
aF-119
aF1791
aF2093
aF2511
aF2668
aF805
aF-3633
aF-7867
aF-9234
aF-5421
aF2132
aF5589
aF4711
aF-550
aF-7005
aF-9518
aF-7315
aF-1043
aF3631
aF3783
aF2024
aF83
aF-1775
aF-3706
aF-5795
aF-7145
aF-5631
aF-442
aF4421
aF5363
aF2371
aF-3279
aF-7973
aF-8713
aF-5060
aF264
aF3443
aF3607
aF1827
aF-561
aF-3099
aF-5415
aF-6758
aF-5953
aF-2426
aF1955
aF4609
aF4149
aF30
aF-5090
aF-7785
aF-6506
aF-1928
aF1893
aF2382
aF844
aF-614
aF-969
aF-1290
aF-3007
aF-5140
aF-5633
aF-2729
aF1932
aF4584
aF3447
aF-824
aF-5415
aF-7073
aF-5110
aF-1502
aF774
aF1031
aF532
aF497
aF644
aF-1000
aF-4222
aF-6636
aF-6120
aF-1587
aF3162
aF4469
aF2211
aF-2621
aF-6488
aF-6936
aF-4022
aF-539
aF652
aF358
aF460
aF927
aF500
aF-1607
aF-4446
aF-5807
aF-4234
aF-505
aF2481
aF2920
aF928
aF-2122
aF-4404
aF-4998
aF-3998
aF-2122
aF-224
aF1184
aF1718
aF661
aF-1613
aF-3309
aF-3596
aF-2593
aF-1463
aF-1268
aF-1208
aF-61
aF1477
aF1449
aF-695
aF-3963
aF-6139
aF-5617
aF-2357
aF1589
aF3228
aF2329
aF81
aF-2669
aF-4660
aF-5062
aF-4160
aF-2516
aF-139
aF2511
aF3731
aF1917
aF-2602
aF-6907
aF-7989
aF-4314
aF1416
aF3964
aF2603
aF-120
aF-2166
aF-3191
aF-3719
aF-4818
aF-5223
aF-2852
aF1819
aF4094
aF3199
aF-925
aF-5976
aF-8323
aF-6033
aF-156
aF3720
aF3415
aF709
aF-1932
aF-2900
aF-3143
aF-3729
aF-4319
aF-3644
aF-892
aF2255
aF2802
aF804
aF-2451
aF-5013
aF-5063
aF-2540
aF253
aF1076
aF96
aF-1139
aF-1055
aF-57
aF-407
aF-2877
aF-5616
aF-5592
aF-1538
aF3099
aF4080
aF1265
aF-3346
aF-6122
aF-5299
aF-2479
aF-210
aF641
aF471
aF304
aF184
aF-891
aF-2982
aF-4494
aF-4585
aF-2939
aF274
aF2740
aF3003
aF902
aF-2646
aF-5849
aF-6664
aF-3903
aF533
aF2987
aF2314
aF-213
aF-2774
aF-4154
aF-4287
aF-3403
aF-1923
aF-105
aF1151
aF-1147
aF-1803
aF3583
aF4389
aF-1835
aF-5525
aF-5563
aF-376
aF3706
aF3360
aF-1457
aF-4563
aF-4533
aF221
aF4427
aF3062
aF-2831
aF-6628
aF-4818
aF1959
aF4891
aF1143
aF-4714
aF-6861
aF-3584
aF3642
aF5702
aF1074
aF-5801
aF-8318
aF-3175
aF4091
aF4331
aF-1842
aF-7409
aF-6722
aF853
aF6020
aF3696
aF-3345
aF-7977
aF-7169
aF162
aF5279
aF3488
aF-2810
aF-7097
aF-4528
aF2660
aF4458
aF-1103
aF-7028
aF-7620
aF-1068
aF4312
aF3886
aF-1235
aF-3969
aF-4108
aF-664
aF3437
aF3472
aF-848
aF-5711
aF-6185
aF-629
aF4178
aF2124
aF-3897
aF-7272
aF-3816
aF3345
aF5467
aF1018
aF-4762
aF-7060
aF-4492
aF2535
aF4981
aF2000
aF-4409
aF-7537
aF-4324
aF2524
aF3622
aF-1998
aF-7172
aF-5718
aF1439
aF5039
aF2487
aF-3029
aF-5575
aF-5045
aF1016
aF4876
aF3446
aF-2901
aF-7546
aF-6167
aF1100
aF4815
aF468
aF-6251
aF-7715
aF-1616
aF4955
aF4131
aF-2213
aF-5872
aF-4948
aF-628
aF3126
aF2947
aF-1112
aF-5872
aF-6368
aF-1161
aF4148
aF1846
aF-4506
aF-7676
aF-3310
aF3474
aF4805
aF380
aF-3860
aF-4215
aF-1963
aF2637
aF3119
aF-35
aF-4753
aF-5372
aF-1749
aF3891
aF3471
aF-2372
aF-6073
aF-4786
aF725
aF2762
aF1560
aF-1805
aF-1734
aF-1654
aF1253
aF3373
aF2749
aF-2672
aF-7157
aF-5979
aF1367
aF5168
aF835
aF-4915
aF-6343
aF-1406
aF3411
aF3333
aF-1231
aF-4789
aF-4656
aF-675
aF4586
aF4317
aF-1258
aF-6819
aF-6668
aF13
aF5058
aF1913
aF-4787
aF-7568
aF-3774
aF2976
aF4315
aF882
aF-3578
aF-4405
aF-2985
aF2417
aF4362
aF1474
aF-3652
aF-5482
aF-2240
aF3081
aF3411
aF-1175
aF-4796
aF-4580
aF-78
aF3888
aF3425
aF-1644
aF-5498
aF-5515
aF3
aF4636
aF2803
aF-3574
aF-7200
aF-4866
aF2797
aF5880
aF2116
aF-4622
aF-7282
aF-5003
aF2198
aF4938
aF1772
aF-4478
aF-7104
aF-3479
aF3270
aF3659
aF-2562
aF-7725
aF-6605
aF773
aF4793
aF3679
aF-1803
aF-4977
aF-5717
aF-752
aF5464
aF5578
aF-80
aF-6768
aF-7170
aF-1143
aF2240
aF-1691
aF-6628
aF-6150
aF437
aF4265
aF3413
aF-1261
aF-3848
aF-4595
aF-1612
aF3827
aF4831
aF405
aF-5985
aF-7358
aF-1562
aF4137
aF1656
aF-5397
aF-8874
aF-4218
aF3977
aF5436
aF867
aF-4758
aF-5033
aF-2786
aF2729
aF4390
aF895
aF-5232
aF-7490
aF-2984
aF3819
aF4289
aF-1083
aF-4884
aF-5359
aF-683
aF2769
aF2692
aF-1573
aF-4398
aF-4061
aF141
aF5060
aF3341
aF-3549
aF-8105
aF-5177
aF2660
aF5101
aF419
aF-4467
aF-4881
aF-2153
aF2090
aF2661
aF451
aF-3625
aF-4669
aF-3191
aF3061
aF5194
aF514
aF-6078
aF-6907
aF-160
aF5044
aF2117
aF-4401
aF-7553
aF-4737
aF2482
aF5075
aF1933
aF-4022
aF-6362
aF-4210
aF2610
aF5040
aF906
aF-5560
aF-7483
aF-2544
aF4544
aF4920
aF-1134
aF-6794
aF-7139
aF-758
aF4812
aF3607
aF-2252
aF-5877
aF-4802
aF1267
aF4377
aF1984
aF-3296
aF-5109
aF-3896
aF1763
aF4143
aF2512
aF-3190
aF-6339
aF-5230
aF1769
aF5641
aF1507
aF-5334
aF-7343
aF-1595
aF4078
aF3235
aF-2073
aF-4270
aF-3808
aF-223
aF2238
aF2640
aF-508
aF-3756
aF-5164
aF-2004
aF4152
aF4708
aF-977
aF-6336
aF-4592
aF2095
aF4146
aF-970
aF-6398
aF-7185
aF-1327
aF4421
aF4662
aF-397
aF-5575
aF-6799
aF-2999
aF3797
aF4825
aF-100
aF-5809
aF-5965
aF268
aF4438
aF1139
aF-5360
aF-8128
aF-4009
aF3534
aF5376
aF943
aF-4772
aF-6399
aF-3495
aF2757
aF4295
aF587
aF-4742
aF-6413
aF-2292
aF3845
aF4452
aF-897
aF-6391
aF-7333
aF-1554
aF4909
aF4661
aF-1523
aF-7018
aF-7066
aF-165
aF5212
aF3129
aF-3731
aF-8123
aF-5626
aF2243
aF5530
aF1797
aF-4706
aF-7612
aF-4703
aF2475
aF4787
aF895
aF-5054
aF-7226
aF-3236
aF3372
aF4202
aF-959
aF-6224
aF-6295
aF-273
aF4490
aF2193
aF-4060
aF-7192
aF-4888
aF2014
aF4918
aF1912
aF-3881
aF-6375
aF-4362
aF2468
aF5050
aF1271
aF-5363
aF-7844
aF-2889
aF4047
aF3805
aF-2349
aF-6850
aF-5808
aF738
aF3861
aF2208
aF-2177
aF-2685
aF-2188
aF615
aF1737
aF1633
aF-1627
aF-3631
aF-3101
aF1220
aF4755
aF2003
aF-4639
aF-8110
aF-3931
aF3637
aF5045
aF-187
aF-4912
aF-5278
aF-2063
aF3035
aF3551
aF-375
aF-5738
aF-7013
aF-2762
aF4532
aF5233
aF-983
aF-7267
aF-6942
aF500
aF5481
aF2373
aF-5106
aF-9117
aF-5411
aF3152
aF6172
aF1523
aF-5525
aF-8140
aF-4189
aF2853
aF4251
aF-34
aF-4652
aF-5397
aF-1199
aF3237
aF2944
aF-1645
aF-5952
aF-5559
aF568
aF4605
aF1831
aF-4192
aF-7287
aF-3821
aF3111
aF4910
aF789
aF-5032
aF-6495
aF-3287
aF3258
aF4621
aF539
aF-5047
aF-6636
aF-2443
aF3642
aF3674
aF-1919
aF-6765
aF-6393
aF297
aF5198
aF3912
aF-2236
aF-6572
aF-6923
aF-571
aF4996
aF4294
aF-1931
aF-7309
aF-6827
aF118
aF5094
aF1960
aF-4863
aF-7815
aF-4004
aF3210
aF4838
aF673
aF-5464
aF-7758
aF-4574
aF2932
aF5438
aF1038
aF-5323
aF-6928
aF-1427
aF3809
aF1954
aF-4282
aF-7943
aF-5216
aF2114
aF4983
aF2306
aF-3789
aF-7041
aF-5498
aF1026
aF4630
aF789
aF-5374
aF-6682
aF-431
aF5282
aF3232
aF-3571
aF-6948
aF-5636
aF955
aF3940
aF2860
aF-2156
aF-5307
aF-4965
aF-50
aF5354
aF4092
aF-2418
aF-7446
aF-4901
aF2638
aF4893
aF-484
aF-6218
aF-7194
aF-2159
aF2816
aF3351
aF81
aF-2666
aF-2609
aF-1245
aF3192
aF3909
aF-237
aF-6665
aF-8250
aF-2476
aF5006
aF4728
aF-2079
aF-7747
aF-6435
aF1236
aF5207
aF1774
aF-4818
aF-7800
aF-4619
aF3025
aF5463
aF1355
aF-4907
aF-7087
aF-4094
aF2751
aF4943
aF1323
aF-4820
aF-7256
aF-3270
aF3419
aF3774
aF-1982
aF-6731
aF-5339
aF1528
aF4412
aF1635
aF-3244
aF-3430
aF-2526
aF1316
aF2001
aF1442
aF-2341
aF-4272
aF-3887
aF1180
aF4656
aF1262
aF-4925
aF-6739
aF-911
aF4800
aF3734
aF-2249
aF-5225
aF-5126
aF-632
aF3015
aF3111
aF-350
aF-4250
aF-4801
aF-2262
aF3792
aF4659
aF-580
aF-5954
aF-5517
aF730
aF3763
aF1142
aF-3127
aF-4701
aF-3499
aF1897
aF4588
aF2802
aF-3819
aF-8564
aF-7181
aF932
aF5584
aF1775
aF-4884
aF-7026
aF-1409
aF4651
aF3608
aF-2890
aF-7446
aF-6607
aF278
aF5301
aF3390
aF-3160
aF-8259
aF-6676
aF369
aF3821
aF-133
aF-5708
aF-6513
aF-633
aF4522
aF3732
aF-1752
aF-6076
aF-6385
aF-1919
aF3789
aF4343
aF-131
aF-5343
aF-6539
aF-1711
aF3814
aF2617
aF-3247
aF-6940
aF-4346
aF2566
aF4675
aF992
aF-4203
aF-5279
aF-3351
aF2524
aF4261
aF1383
aF-4064
aF-5970
aF-3947
aF2037
aF4068
aF853
aF-4855
aF-7041
aF-3091
aF3584
aF4219
aF-1536
aF-7456
aF-7573
aF-548
aF4995
aF3200
aF-3428
aF-7444
aF-5850
aF1477
aF5248
aF2340
aF-4336
aF-8240
aF-5995
aF1050
aF4894
aF1047
aF-5250
aF-6993
aF-1680
aF4030
aF2632
aF-3850
aF-8457
aF-6407
aF1415
aF5492
aF3555
aF-2915
aF-7044
aF-6695
aF5
aF5300
aF3455
aF-2854
aF-7171
aF-4752
aF2030
aF3723
aF-1306
aF-6633
aF-6996
aF-1300
aF3712
aF3331
aF-1285
aF-4493
aF-4391
aF-1023
aF3707
aF3796
aF-1326
aF-6603
aF-6906
aF-620
aF5191
aF3404
aF-3435
aF-7775
aF-5693
aF1829
aF5295
aF1908
aF-4652
aF-7836
aF-4974
aF2439
aF5054
aF1058
aF-4600
aF-6600
aF-3074
aF3062
aF4260
aF136
aF-5319
aF-6955
aF-2991
aF3687
aF4569
aF-454
aF-6212
aF-6888
aF-1214
aF3677
aF1859
aF-3798
aF-7168
aF-4319
aF2180
aF4480
aF1310
aF-4567
aF-7464
aF-4756
aF2146
aF4742
aF811
aF-5168
aF-7175
aF-2321
aF3549
aF2916
aF-2817
aF-7534
aF-6027
aF1478
aF5887
aF2873
aF-4355
aF-8915
aF-5950
aF2255
aF5565
aF1405
aF-5374
aF-8185
aF-4380
aF3430
aF5512
aF1302
aF-5405
aF-8063
aF-4882
aF2511
aF4906
aF918
aF-5189
aF-6936
aF-1701
aF4045
aF2218
aF-4801
aF-8998
aF-6008
aF2231
aF5672
aF3004
aF-3498
aF-7233
aF-6364
aF-7
aF4651
aF2767
aF-2642
aF-5654
aF-2382
aF2389
aF1300
aF-3931
aF-7018
aF-4699
aF1555
aF4160
aF2514
aF-3167
aF-6910
aF-6393
aF634
aF5974
aF3776
aF-3317
aF-8406
aF-5715
aF1976
aF4632
aF-751
aF-7142
aF-7714
aF-1240
aF4619
aF3765
aF-1580
aF-5036
aF-4744
aF-918
aF3424
aF3618
aF-838
aF-5615
aF-6565
aF-1341
aF5212
aF4984
aF-1613
aF-7792
aF-7451
aF144
aF5314
aF2752
aF-4038
aF-7125
aF-4709
aF2201
aF4874
aF1278
aF-4741
aF-6668
aF-4105
aF2572
aF5049
aF1826
aF-4584
aF-7813
aF-4431
aF2775
aF4686
aF-184
aF-6071
aF-7473
aF-1723
aF4263
aF3968
aF-1660
aF-5970
aF-6144
aF-698
aF4882
aF4400
aF-1332
aF-6503
aF-5910
aF447
aF3834
aF337
aF-4932
aF-6495
aF-1735
aF4076
aF4310
aF-838
aF-5608
aF-6481
aF-2570
aF3682
aF4682
aF689
aF-5661
aF-7653
aF-3124
aF3660
aF3219
aF-2974
aF-6980
aF-4215
aF2177
aF3728
aF996
aF-2519
aF-2283
aF-2473
aF1372
aF2982
aF2902
aF-1843
aF-5996
aF-6445
aF-742
aF4276
aF1595
aF-4305
aF-6014
aF-556
aF4017
aF3276
aF-1425
aF-2880
aF-3100
aF-489
aF2664
aF2988
aF-55
aF-5612
aF-7268
aF-4080
aF2349
aF3248
aF-1448
aF-4713
aF-1999
aF3482
aF4051
aF-1308
aF-6720
aF-7666
aF-3104
aF3688
aF4888
aF742
aF-5712
aF-8411
aF-4749
aF1923
aF3149
aF-1548
aF-5735
aF-3769
aF2497
aF4724
aF547
aF-5670
aF-8196
aF-4527
aF2810
aF5114
aF1445
aF-4778
aF-7593
aF-4161
aF2615
aF4161
aF-435
aF-6012
aF-7035
aF-1478
aF4489
aF3922
aF-1874
aF-7436
aF-7190
aF-529
aF4790
aF2382
aF-4215
aF-8072
aF-4893
aF2599
aF5284
aF1725
aF-4950
aF-8669
aF-6203
aF1425
aF5574
aF2784
aF-3619
aF-7398
aF-3974
aF2617
aF3534
aF-2245
aF-7701
aF-7150
aF99
aF4984
aF3371
aF-2682
aF-6548
aF-5887
aF-811
aF4740
aF4205
aF-1235
aF-6640
aF-6220
aF-315
aF3013
aF-406
aF-5698
aF-7160
aF-1934
aF4171
aF4832
aF530
aF-5591
aF-7678
aF-4697
aF2458
aF5050
aF1230
aF-4659
aF-6279
aF-1315
aF3574
aF2075
aF-3785
aF-7336
aF-5453
aF1436
aF4782
aF2529
aF-3216
aF-6511
aF-5610
aF386
aF4678
aF2271
aF-3883
aF-7625
aF-4286
aF2906
aF4674
aF-282
aF-6259
aF-7944
aF-2601
aF4169
aF5030
aF66
aF-6483
aF-8402
aF-3305
aF3758
aF4001
aF-1851
aF-7102
aF-6038
aF881
aF5036
aF2036
aF-4613
aF-8256
aF-5364
aF1809
aF4754
aF1345
aF-4491
aF-7230
aF-3719
aF2365
aF3501
aF-923
aF-5828
aF-6118
aF-524
aF4226
aF2920
aF-2864
aF-7419
aF-5732
aF1240
aF4743
aF927
aF-5431
aF-7751
aF-2879
aF3566
aF4076
aF-807
aF-5801
aF-6741
aF-2261
aF4083
aF4902
aF263
aF-5810
aF-7439
aF-2480
aF3068
aF1903
aF-3861
aF-7500
aF-4113
aF3418
aF5817
aF1469
aF-5354
aF-7652
aF-5348
aF1518
aF4344
aF2383
aF-3080
aF-7046
aF-5720
aF350
aF3320
aF-997
aF-6286
aF-5603
aF1258
aF5596
aF3440
aF-3209
aF-8107
aF-8004
aF-635
aF5757
aF5335
aF-715
aF-7300
aF-8219
aF-2045
aF3796
aF2188
aF-3764
aF-7076
aF-2964
aF3806
aF4850
aF-321
aF-5948
aF-7280
aF-2866
aF4071
aF5098
aF237
aF-6737
aF-8958
aF-3913
aF3939
aF5161
aF-605
aF-6658
aF-6993
aF-337
aF4716
aF2871
aF-3416
aF-7399
aF-5843
aF1409
aF5634
aF3117
aF-3377
aF-6866
aF-5480
aF1624
aF5341
aF2260
aF-4292
aF-7441
aF-3747
aF3255
aF4673
aF-111
aF-4698
aF-5367
aF-1637
aF2934
aF3270
aF-375
aF-3777
aF-4191
aF-1819
aF3211
aF4313
aF387
aF-5234
aF-7005
aF-2250
aF3790
aF3426
aF-2156
aF-6309
aF-4945
aF1669
aF4797
aF2208
aF-3581
aF-6007
aF-4992
aF1653
aF5355
aF3455
aF-2970
aF-7648
aF-6078
aF791
aF3794
aF-498
aF-5850
aF-5748
aF631
aF4531
aF2179
aF-3343
aF-5492
aF-4778
aF591
aF4580
aF4000
aF-1058
aF-7102
aF-8283
aF-3184
aF2938
aF2498
aF-2373
aF-5258
aF-1865
aF3901
aF4260
aF-1450
aF-6838
aF-7423
aF-2594
aF3265
aF3822
aF461
aF-4088
aF-5605
aF-2947
aF2045
aF2163
aF-1845
aF-4330
aF-1406
aF3032
aF3259
aF-1123
aF-6357
aF-8213
aF-4192
aF3257
aF5793
aF2519
aF-4332
aF-8481
aF-5854
aF584
aF2645
aF-1589
aF-5802
aF-4056
aF2269
aF4810
aF914
aF-5460
aF-8334
aF-4976
aF2326
aF5214
aF2035
aF-4075
aF-7688
aF-5168
aF1248
aF3842
aF93
aF-5556
aF-7321
aF-2055
aF4099
aF4282
aF-881
aF-5779
aF-6285
aF-1258
aF4076
aF3513
aF-1866
aF-6661
aF-6185
aF185
aF4619
aF2462
aF-3573
aF-7705
aF-6135
aF758
aF5083
aF2768
aF-3361
aF-7596
aF-5607
aF1179
aF4416
aF264
aF-5925
aF-7807
aF-2760
aF4175
aF4850
aF-533
aF-6815
aF-8189
aF-3334
aF3892
aF4981
aF41
aF-6038
aF-6994
aF-1416
aF3503
aF1249
aF-4551
aF-7540
aF-4445
aF2337
aF4211
aF1779
aF-3692
aF-6218
aF-5491
aF568
aF5547
aF3733
aF-2205
aF-6107
aF-3408
aF1579
aF1215
aF-4018
aF-7934
aF-5784
aF1700
aF5529
aF3728
aF-2423
aF-7430
aF-7718
aF-2395
aF3832
aF4057
aF-490
aF-4980
aF-4270
aF807
aF2837
aF-1042
aF-6060
aF-7131
aF-1890
aF4246
aF4907
aF574
aF-5645
aF-8223
aF-5016
aF1828
aF3893
aF153
aF-4330
aF-4347
aF587
aF3929
aF1234
aF-4807
aF-8438
aF-5872
aF1763
aF5450
aF2702
aF-3567
aF-7776
aF-5848
aF772
aF3583
aF-135
aF-5396
aF-6411
aF-1382
aF4094
aF3196
aF-2317
aF-7087
aF-7034
aF-1557
aF3607
aF3113
aF-1564
aF-5709
aF-5015
aF306
aF3349
aF414
aF-4954
aF-7403
aF-3477
aF3135
aF4851
aF1001
aF-5403
aF-8142
aF-4329
aF2139
aF2854
aF-2154
aF-6026
aF-3425
aF2869
aF4688
aF501
aF-5717
aF-8145
aF-5355
aF2422
aF6220
aF3936
aF-2611
aF-8087
aF-7300
aF-1417
aF2249
aF-354
aF-4672
aF-4356
aF1610
aF5655
aF3213
aF-3612
aF-7390
aF-7008
aF-592
aF4924
aF4895
aF-45
aF-6729
aF-8618
aF-4469
aF2903
aF3612
aF-1878
aF-5695
aF-2078
aF4206
aF4905
aF-341
aF-4583
aF-5377
aF-3307
aF1642
aF3133
aF2192
aF-2968
aF-6287
aF-5911
aF746
aF5094
aF1492
aF-4833
aF-6361
aF-391
aF4888
aF3428
aF-2664
aF-5457
aF-4726
aF88
aF2969
aF2348
aF-1447
aF-5212
aF-5377
aF-1426
aF4439
aF4177
aF-1775
aF-6977
aF-5593
aF1487
aF5002
aF1243
aF-5284
aF-8233
aF-4251
aF3573
aF5714
aF1297
aF-5377
aF-8014
aF-4703
aF2655
aF5015
aF1112
aF-4826
aF-6980
aF-2626
aF3062
aF3029
aF-1889
aF-6304
aF-5904
aF289
aF4881
aF3201
aF-2978
aF-8145
aF-7694
aF-815
aF4777
aF3870
aF-1458
aF-6229
aF-6044
aF-988
aF2552
aF274
aF-4095
aF-5010
aF-437
aF3996
aF2470
aF-3139
aF-7109
aF-6677
aF-531
aF4601
aF4028
aF-1129
aF-6428
aF-6709
aF-1543
aF2561
aF844
aF-3780
aF-5599
aF-1517
aF3939
aF3829
aF-1847
aF-7314
aF-8010
aF-2404
aF4004
aF4637
aF436
aF-5408
aF-7481
aF-3931
aF2131
aF2825
aF-1686
aF-5053
aF-2612
aF2426
aF3479
aF-723
aF-5833
aF-7028
aF-3190
aF3192
aF4610
aF1235
aF-4605
aF-7493
aF-4488
aF1923
aF3787
aF-188
aF-5261
aF-5864
aF-541
aF3919
aF2169
aF-3748
aF-7812
aF-5595
aF1827
aF5586
aF2374
aF-4551
aF-8859
aF-6065
aF1746
aF5509
aF1875
aF-4983
aF-8505
aF-5033
aF2332
aF4696
aF574
aF-5287
aF-7120
aF-2614
aF3382
aF3452
aF-2018
aF-7282
aF-7135
aF-526
aF4836
aF3532
aF-2500
aF-7401
aF-6933
aF-140
aF4804
aF3061
aF-2960
aF-7558
aF-5498
aF1546
aF4588
aF675
aF-5373
aF-7626
aF-3352
aF3350
aF4459
aF94
aF-5958
aF-7924
aF-4047
aF2967
aF4634
aF200
aF-5277
aF-6353
aF-1336
aF3528
aF2132
aF-3527
aF-7694
aF-6233
aF881
aF5436
aF3657
aF-2710
aF-7942
aF-7686
aF-880
aF4661
aF3388
aF-2324
aF-6684
aF-4647
aF1752
aF3264
aF-1932
aF-7026
aF-6872
aF-476
aF4537
aF3655
aF-1729
aF-7251
aF-8204
aF-3627
aF3328
aF4719
aF705
aF-4078
aF-4879
aF-858
aF2515
aF191
aF-5443
aF-8225
aF-4349
aF2919
aF4833
aF1626
aF-4159
aF-6713
aF-5065
aF1211
aF4433
aF1789
aF-3415
aF-5522
aF-1921
aF2235
aF1538
aF-3148
aF-7036
aF-6148
aF248
aF4968
aF3817
aF-1572
aF-6942
aF-7687
aF-2623
aF3010
aF2522
aF-1816
aF-4365
aF-1794
aF2481
aF1798
aF-3538
aF-7587
aF-5830
aF865
aF5029
aF2933
aF-2882
aF-7071
aF-5482
aF442
aF3512
aF262
aF-5533
aF-7817
aF-3068
aF3942
aF5190
aF331
aF-6150
aF-8459
aF-3703
aF3562
aF4536
aF-889
aF-6465
aF-6522
aF-15
aF4574
aF2542
aF-3423
aF-6773
aF-5881
aF776
aF4931
aF3831
aF-1816
aF-7213
aF-7620
aF-1945
aF4274
aF3126
aF-2866
aF-6332
aF-2403
aF3480
aF4005
aF-1020
aF-5050
aF-5971
aF-2268
aF4222
aF5313
aF2049
aF-5334
aF-9279
aF-7312
aF-358
aF4413
aF1670
aF-3684
aF-4545
aF974
aF4719
aF1833
aF-3857
aF-5159
aF-4184
aF589
aF3190
aF3219
aF-798
aF-6285
aF-8030
aF-4776
aF1899
aF3221
aF-310
aF-2282
aF465
aF4094
aF3041
aF-2765
aF-7655
aF-8625
aF-3145
aF3709
aF5411
aF2417
aF-4284
aF-8266
aF-6780
aF-861
aF2116
aF-549
aF-3194
aF-1233
aF3344
aF4557
aF55
aF-6272
aF-8881
aF-5689
aF1895
aF5223
aF2995
aF-3024
aF-7724
aF-7013
aF-1240
aF2894
aF687
aF-3868
aF-4727
aF-151
aF4072
aF2796
aF-2943
aF-7642
aF-7260
aF-575
aF4982
aF4027
aF-1733
aF-7159
aF-7166
aF-1226
aF3914
aF2654
aF-2609
aF-6353
aF-4676
aF817
aF3231
aF720
aF-3824
aF-5767
aF-2539
aF2689
aF3050
aF-1319
aF-6176
aF-6867
aF-1556
aF3852
aF3701
aF-951
aF-6040
aF-6708
aF-1795
aF2714
aF1543
aF-2686
aF-4558
aF-1004
aF3494
aF2645
aF-3013
aF-7838
aF-7632
aF-1014
aF4690
aF4479
aF-553
aF-6229
aF-7543
aF-3334
aF3192
aF3907
aF-635
aF-5206
aF-4309
aF1211
aF3341
aF-926
aF-6615
aF-8265
aF-3136
aF4021
aF5337
aF1332
aF-5607
aF-8861
aF-6202
aF1377
aF5345
aF2251
aF-3904
aF-6935
aF-3534
aF2225
aF2500
aF-2379
aF-6615
aF-5084
aF1406
aF4649
aF1935
aF-3989
aF-7652
aF-6081
aF1069
aF5486
aF3465
aF-2909
aF-8238
aF-7325
aF-642
aF4126
aF2090
aF-3470
aF-6271
aF-2617
aF3149
aF3254
aF-2200
aF-7348
aF-7017
aF-388
aF4828
aF3606
aF-1939
aF-6344
aF-6746
aF-1458
aF3955
aF3689
aF-1119
aF-6069
aF-5619
aF265
aF4147
aF1106
aF-5417
aF-8645
aF-4403
aF3291
aF5301
aF1086
aF-5143
aF-7653
aF-4203
aF2555
aF4259
aF41
aF-5301
aF-6286
aF-1098
aF3957
aF3332
aF-2174
aF-7206
aF-7759
aF-1846
aF4410
aF4800
aF73
aF-5928
aF-7741
aF-4188
aF2493
aF4172
aF484
aF-3975
aF-4146
aF192
aF2591
aF-640
aF-5678
aF-7574
aF-3720
aF2940
aF4833
aF1456
aF-4147
aF-7479
aF-5867
aF-593
aF2526
aF672
aF-2378
aF-2833
aF-62
aF1961
aF-1010
aF-5984
aF-7602
aF-3159
aF3627
aF5084
aF594
aF-6090
aF-8820
aF-5078
aF2150
aF4523
aF794
aF-4436
aF-5638
aF-1037
aF3129
aF1304
aF-4207
aF-7643
aF-5051
aF1925
aF4802
aF2058
aF-3872
aF-6776
aF-5006
aF1411
aF4542
aF1998
aF-3742
aF-6903
aF-4545
aF2134
aF4451
aF685
aF-5250
aF-7484
aF-3144
aF3725
aF4815
aF-114
aF-6301
aF-7554
aF-1875
aF3948
aF2955
aF-3088
aF-7658
aF-6155
aF1272
aF5901
aF3208
aF-3913
aF-9078
aF-7747
aF-335
aF5152
aF3463
aF-2250
aF-6241
aF-4187
aF1471
aF2871
aF-1847
aF-7038
aF-7302
aF-959
aF4859
aF4684
aF-567
aF-6547
aF-8491
aF-4226
aF3306
aF5305
aF1141
aF-4925
aF-6853
aF-2150
aF3030
aF1680
aF-4007
aF-7577
aF-4902
aF2258
aF5078
aF2320
aF-4128
aF-8384
aF-6907
aF-313
aF3988
aF1886
aF-2665
aF-4151
aF-494
aF3406
aF2472
aF-2933
aF-7838
aF-8485
aF-2439
aF4545
aF5543
aF1613
aF-5083
aF-8416
aF-5895
aF-566
aF562
aF-2345
aF-3271
aF362
aF4069
aF3546
aF-1505
aF-6247
aF-7598
aF-4558
aF2541
aF5623
aF4269
aF-1280
aF-7214
aF-8655
aF-5442
aF-1294
aF-259
aF-807
aF720
aF3554
aF3800
aF-455
aF-6358
aF-9041
aF-6310
aF1146
aF5362
aF4020
aF-471
aF-4942
aF-5918
aF-3542
aF-1399
aF-2010
aF-3697
aF-3111
aF979
aF4423
aF3167
aF-1956
aF-6590
aF-7396
aF-2756
aF3255
aF3965
aF13
aF-4958
aF-5731
aF-1357
aF2247
aF355
aF-4510
aF-7117
aF-4152
aF2205
aF5098
aF2604
aF-2887
aF-6888
aF-6300
aF-1511
aF1990
aF616
aF-2955
aF-3826
aF198
aF3533
aF1608
aF-3682
aF-7244
aF-6390
aF-348
aF4322
aF3761
aF-544
aF-5224
aF-6148
aF-2934
aF277
aF-437
aF-3230
aF-3766
aF-191
aF3783
aF3230
aF-1865
aF-7087
aF-7870
aF-2592
aF3822
aF4493
aF125
aF-4945
aF-5627
aF-1272
aF1942
aF-483
aF-5166
aF-6685
aF-2068
aF3951
aF4870
aF365
aF-5991
aF-8415
aF-4969
aF2365
aF4950
aF1511
aF-4490
aF-7474
aF-3905
aF2522
aF3480
aF-1580
aF-6748
aF-6882
aF-562
aF4687
aF4029
aF-1703
aF-7023
aF-7820
aF-2182
aF4402
aF4789
aF-309
aF-5994
aF-7068
aF-2040
aF3354
aF2610
aF-2545
aF-6283
aF-4495
aF1682
aF4282
aF1446
aF-4071
aF-7253
aF-5224
aF1496
aF5008
aF2474
aF-3194
aF-6815
aF-5188
aF-247
aF1878
aF-416
aF-3481
aF-3562
aF-138
aF2965
aF1827
aF-2532
aF-6339
aF-6344
aF-1828
aF3109
aF3052
aF-1060
aF-4971
aF-5247
aF-1952
aF884
aF-205
aF-2974
aF-2787
aF942
aF3298
aF854
aF-4585
aF-8142
aF-5731
aF1067
aF4912
aF2869
aF-2189
aF-6518
aF-6653
aF-1852
aF2318
aF1789
aF-1862
aF-4525
aF-2710
aF1942
aF3326
aF-520
aF-5916
aF-7865
aF-3583
aF2862
aF4275
aF854
aF-4828
aF-7542
aF-5377
aF616
aF3742
aF1643
aF-1958
aF-3622
aF-1933
aF619
aF192
aF-3208
aF-5998
aF-4479
aF1210
aF4295
aF1283
aF-4610
aF-7576
aF-4766
aF1969
aF4203
aF598
aF-4836
aF-6758
aF-2782
aF2767
aF2875
aF-1889
aF-6430
aF-6037
aF-95
aF4582
aF3209
aF-2820
aF-8150
aF-7419
aF-127
aF5505
aF3502
aF-3292
aF-8021
aF-6127
aF1114
aF4529
aF1330
aF-4516
aF-7056
aF-3824
aF2753
aF4509
aF625
aF-5227
aF-7527
aF-3240
aF3225
aF4319
aF-351
aF-6312
aF-7813
aF-2265
aF4482
aF4472
aF-1662
aF-7692
aF-8169
aF-1754
aF4879
aF4577
aF-1055
aF-6765
aF-6873
aF-1126
aF3353
aF1609
aF-3602
aF-6893
aF-4410
aF1931
aF4751
aF1541
aF-4659
aF-8310
aF-5864
aF1074
aF4699
aF2027
aF-3364
aF-6216
aF-3488
aF1523
aF2239
aF-1742
aF-5755
aF-5197
aF212
aF4086
aF2499
aF-2727
aF-6600
aF-5358
aF-121
aF2546
aF179
aF-3654
aF-4361
aF-558
aF3608
aF3107
aF-2123
aF-7415
aF-8544
aF-3468
aF3792
aF5670
aF2336
aF-4077
aF-8177
aF-6543
aF-1150
aF1561
aF-410
aF-2837
aF-1587
aF2449
aF4055
aF527
aF-5312
aF-8541
aF-7056
aF79
aF4781
aF4373
aF115
aF-5845
aF-8139
aF-5845
aF-792
aF1333
aF-320
aF-1119
aF1104
aF3345
aF1946
aF-3070
aF-7127
aF-7485
aF-2683
aF3490
aF4718
aF2388
aF-2182
aF-5773
aF-6117
aF-4155
aF-2394
aF-1600
aF-370
aF1511
aF2631
aF1512
aF-1848
aF-5262
aF-6103
aF-3443
aF162
aF1060
aF-484
aF-1393
aF437
aF2952
aF1925
aF-3381
aF-8353
aF-8937
aF-3257
aF3875
aF5433
aF2536
aF-3550
aF-7705
aF-7097
aF-2018
aF1726
aF371
aF-2259
aF-1407
aF2650
aF4533
aF897
aF-5356
aF-8454
aF-7094
aF360
aF5188
aF4655
aF-451
aF-6813
aF-8722
aF-5185
aF1473
aF3181
aF-255
aF-2792
aF-567
aF3188
aF2727
aF-2399
aF-6773
aF-7429
aF-2991
aF3266
aF4584
aF2233
aF-3626
aF-6931
aF-6164
aF-227
aF4195
aF2055
aF-2813
aF-4867
aF-1409
aF2695
aF1533
aF-3466
aF-7068
aF-5576
aF618
aF4240
aF2599
aF-1891
aF-5543
aF-4737
aF-335
aF1855
aF-658
aF-4842
aF-6051
aF-1656
aF3867
aF4303
aF-376
aF-6457
aF-8606
aF-4527
aF2426
aF4432
aF862
aF-3801
aF-4504
aF-808
aF1783
aF-662
aF-5512
aF-7621
aF-3598
aF3169
aF5103
aF2033
aF-3938
aF-7256
aF-6661
aF-390
aF4807
aF3952
aF-1283
aF-5681
aF-5225
aF-1079
aF172
aF-2394
aF-4475
aF-2432
aF2076
aF4143
aF1970
aF-3142
aF-7423
aF-7376
aF-2270
aF3095
aF3745
aF368
aF-3646
aF-4967
aF-2787
aF-107
aF-520
aF-2962
aF-3597
aF-544
aF2973
aF2456
aF-1819
aF-6031
aF-6255
aF-1656
aF3029
aF2579
aF-2013
aF-5935
aF-5114
aF234
aF4067
aF2176
aF-3460
aF-7502
aF-5924
aF625
aF4613
aF2368
aF-3303
aF-7135
aF-5022
aF1231
aF3573
aF-311
aF-5519
aF-6626
aF-1526
aF3834
aF3955
aF-1009
aF-6461
aF-7615
aF-3044
aF3842
aF4726
aF608
aF-5500
aF-7763
aF-4253
aF2527
aF4080
aF-97
aF-5445
aF-6511
aF-1326
aF3753
aF2361
aF-3038
aF-6726
aF-4602
aF1419
aF4079
aF707
aF-5044
aF-7564
aF-4018
aF2164
aF4260
aF813
aF-4578
aF-6975
aF-4055
aF1652
aF3332
aF-226
aF-4478
aF-4701
aF-399
aF2829
aF437
aF-4898
aF-7225
aF-3032
aF3739
aF5151
aF351
aF-6488
aF-9155
aF-4936
aF2660
aF5256
aF1829
aF-3703
aF-6468
aF-3949
aF962
aF2000
aF-1854
aF-5985
aF-5486
aF384
aF4372
aF3166
aF-2006
aF-5856
aF-6350
aF-860
aF4636
aF4572
aF-991
aF-7335
aF-8470
aF-2383
aF4105
aF3783
aF-1519
aF-6249
aF-5769
aF-264
aF3771
aF1951
aF-3405
aF-7147
aF-5087
aF1424
aF4708
aF1893
aF-3897
aF-7116
aF-5128
aF1438
aF4661
aF2005
aF-3702
aF-7028
aF-4489
aF822
aF2261
aF-770
aF-3833
aF-3466
aF-16
aF2602
aF1331
aF-3207
aF-6902
aF-6284
aF-771
aF4069
aF3635
aF-704
aF-5034
aF-5703
aF-2775
aF-506
aF-1365
aF-2403
aF-584
aF2572
aF3214
aF-282
aF-5325
aF-7775
aF-5856
aF-422
aF3602
aF3692
aF1131
aF-2065
aF-3695
aF-3553
aF-2901
aF-2896
aF-3303
aF-2109
aF1539
aF4284
aF2805
aF-2489
aF-7280
aF-7844
aF-3126
aF2545
aF3448
aF776
aF-2252
aF-2497
aF-510
aF-370
aF-3547
aF-6852
aF-6343
aF-625
aF4343
aF4654
aF506
aF-5367
aF-7992
aF-5867
aF867
aF4411
aF2234
aF-1815
aF-3022
aF-212
aF1665
aF-1370
aF-6421
aF-8550
aF-4605
aF2765
aF5802
aF3859
aF-2331
aF-7715
aF-8655
aF-4492
aF1728
aF3512
aF1398
aF-685
aF126
aF2082
aF240
aF-5129
aF-8521
aF-7360
aF-788
aF4212
aF4170
aF442
aF-5562
aF-8013
aF-6140
aF371
aF3865
aF1777
aF-1307
aF-1597
aF824
aF1881
aF-1520
aF-7140
aF-9376
aF-5091
aF2802
aF6033
aF3804
aF-2404
aF-7496
aF-8010
aF-2769
aF3059
aF2870
aF-1390
aF-4016
aF-1556
aF2599
aF2550
aF-2143
aF-6578
aF-7247
aF-2385
aF3498
aF4538
aF1568
aF-3490
aF-6117
aF-4382
aF-881
aF-58
aF-2243
aF-3547
aF-959
aF2671
aF3279
aF-412
aF-5689
aF-7964
aF-4553
aF2192
aF4973
aF2281
aF-2879
aF-5638
aF-3536
aF-90
aF-204
aF-3617
aF-5709
aF-2637
aF3096
aF4930
aF1556
aF-4598
aF-8029
aF-6612
aF115
aF4943
aF3586
aF-1692
aF-6367
aF-5552
aF-274
aF2271
aF-957
aF-5268
aF-5783
aF-1070
aF3650
aF3508
aF-1172
aF-6295
aF-7204
aF-2182
aF3632
aF4011
aF-672
aF-5624
aF-5846
aF-794
aF3214
aF1732
aF-3389
aF-7022
aF-5591
aF581
aF4753
aF3198
aF-1776
aF-6142
aF-6602
aF-2931
aF1041
aF1222
aF-1109
aF-2714
aF-1180
aF2027
aF1789
aF-2709
aF-7059
aF-7191
aF-1622
aF4255
aF4532
aF168
aF-5706
aF-7897
aF-4715
aF147
aF1235
aF-1045
aF-2115
aF585
aF3312
aF1677
aF-3629
aF-8335
aF-8048
aF-1360
aF4893
aF5107
aF394
aF-5675
aF-7952
aF-4396
aF1480
aF2562
aF-1374
aF-4891
aF-3329
aF1735
aF3733
aF381
aF-5108
aF-7424
aF-4163
aF2903
aF5384
aF1921
aF-4876
aF-9097
aF-6561
aF1242
aF5454
aF2501
aF-3955
aF-7907
aF-5639
aF1171
aF4749
aF1885
aF-3951
aF-7316
aF-4713
aF1448
aF3623
aF-79
aF-5030
aF-5883
aF-948
aF3660
aF2697
aF-2615
aF-6949
aF-6584
aF-333
aF4716
aF4195
aF-731
aF-6145
aF-7316
aF-3130
aF2054
aF2096
aF-1700
aF-4185
aF-1988
aF2436
aF3089
aF-1354
aF-6443
aF-7539
aF-2554
aF3854
aF4854
aF769
aF-5339
aF-8177
aF-5097
aF1102
aF3106
aF171
aF-3327
aF-3440
aF-115
aF2302
aF384
aF-4171
aF-6788
aF-4293
aF1636
aF4593
aF2379
aF-3035
aF-7078
aF-6189
aF-1033
aF2555
aF1482
aF-1600
aF-3031
aF-1522
aF294
aF-448
aF-2723
aF-3715
aF-2283
aF623
aF2166
aF688
aF-2450
aF-4606
aF-3708
aF-486
aF1176
aF-647
aF-3413
aF-3450
aF253
aF3078
aF1122
aF-3769
aF-6680
aF-4290
aF1555
aF4086
aF1672
aF-3642
aF-6852
aF-5377
aF-421
aF2547
aF1155
aF-1709
aF-2426
aF-176
aF2035
aF731
aF-3760
aF-7392
aF-6476
aF-265
aF4268
aF4075
aF-345
aF-5818
aF-7740
aF-4842
aF1944
aF4579
aF1838
aF-1842
aF-2480
aF-156
aF651
aF-2377
aF-6636
aF-7533
aF-2443
aF4210
aF5727
aF2039
aF-4393
aF-7882
aF-7153
aF-1332
aF4004
aF3657
aF-245
aF-3725
aF-2549
aF778
aF210
aF-4298
aF-7756
aF-5943
aF927
aF5131
aF4208
aF-1393
aF-7296
aF-8638
aF-4454
aF1770
aF3561
aF1009
aF-1782
aF-2021
aF40
aF1042
aF-1599
aF-5735
aF-7237
aF-3640
aF2693
aF5135
aF2274
aF-3349
aF-7232
aF-6290
aF-1387
aF1886
aF673
aF-1907
aF-1649
aF1686
aF3111
aF-185
aF-5586
aF-8666
aF-6783
aF256
aF5368
aF4766
aF-437
aF-6471
aF-7896
aF-3364
aF1892
aF1601
aF-2653
aF-4668
aF-1103
aF3919
aF3619
aF-2133
aF-7498
aF-8075
aF-2286
aF4109
aF4638
aF120
aF-5291
aF-6491
aF-2161
aF2288
aF1363
aF-2874
aF-5631
aF-3347
aF1820
aF3929
aF1589
aF-3786
aF-7103
aF-6012
aF-53
aF4097
aF2756
aF-1631
aF-4704
aF-2919
aF981
aF1188
aF-2392
aF-5938
aF-5745
aF-897
aF3732
aF3679
aF-461
aF-5392
aF-7060
aF-3685
aF1482
aF2603
aF-271
aF-3018
aF-2280
aF1074
aF2124
aF-1621
aF-6599
aF-7790
aF-3017
aF3348
aF4797
aF1720
aF-3715
aF-7165
aF-6100
aF-1675
aF1396
aF587
aF-1310
aF-1028
aF1483
aF2539
aF-709
aF-5731
aF-7745
aF-4394
aF2213
aF4628
aF2147
aF-3450
aF-7169
aF-5269
aF299
aF2634
aF-213
aF-3901
aF-3668
aF646
aF3514
aF1351
aF-4106
aF-7898
aF-6799
aF-240
aF5056
aF4610
aF-316
aF-6112
aF-7744
aF-3811
aF1364
aF1958
aF-1612
aF-4302
aF-2325
aF2311
aF3571
aF-514
aF-6227
aF-8369
aF-4125
aF3453
aF5848
aF2094
aF-4595
aF-8488
aF-6361
aF172
aF3726
aF1242
aF-3343
aF-5029
aF-1469
aF3017
aF1917
aF-3683
aF-7959
aF-6576
aF475
aF5264
aF4303
aF-1227
aF-6966
aF-8223
aF-3586
aF2693
aF3753
aF-68
aF-4460
aF-5068
aF-920
aF2938
aF1692
aF-3182
aF-6667
aF-4872
aF1420
aF4618
aF1644
aF-4278
aF-7717
aF-5237
aF992
aF3864
aF1315
aF-3391
aF-5949
aF-4006
aF474
aF2573
aF649
aF-2751
aF-4246
aF-2255
aF776
aF868
aF-2002
aF-4233
aF-2701
aF1276
aF2530
aF-782
aF-5308
aF-6232
aF-1791
aF3058
aF3351
aF-336
aF-4273
aF-4871
aF-2102
aF240
aF-339
aF-2242
aF-2839
aF-919
aF1614
aF1815
aF-1322
aF-5351
aF-6404
aF-2760
aF2567
aF4005
aF780
aF-4043
aF-5943
aF-3250
aF1193
aF1730
aF-1587
aF-4453
aF-2870
aF1328
aF2882
aF348
aF-4233
aF-6719
aF-4471
aF855
aF3856
aF2463
aF-1737
aF-5068
aF-4658
aF-1258
aF996
aF-225
aF-3027
aF-4047
aF-1439
aF2297
aF2423
aF-1088
aF-5106
aF-6079
aF-2238
aF2603
aF3223
aF-288
aF-4533
aF-5577
aF-2244
aF1207
aF554
aF-2678
aF-4107
aF-1276
aF2835
aF3146
aF-1108
aF-5972
aF-7491
aF-3560
aF2625
aF4624
aF2001
aF-3475
aF-7118
aF-6019
aF-1288
aF1814
aF479
aF-2021
aF-1731
aF1128
aF2528
aF-279
aF-5128
aF-7766
aF-5129
aF1512
aF5392
aF3985
aF-1519
aF-7052
aF-8548
aF-4947
aF1230
aF3694
aF1764
aF-1177
aF-2241
aF-923
aF-301
aF-3028
aF-6869
aF-6567
aF-604
aF4737
aF4771
aF63
aF-6055
aF-8738
aF-5767
aF757
aF3674
aF1611
aF-1713
aF-2618
aF13
aF2088
aF-362
aF-5302
aF-8011
aF-5065
aF1767
aF4770
aF2685
aF-2837
aF-6831
aF-6202
aF-795
aF3023
aF1533
aF-2423
aF-4104
aF-1218
aF2278
aF2040
aF-1969
aF-6466
aF-7222
aF-2270
aF3776
aF4538
aF105
aF-5523
aF-7258
aF-2831
aF2857
aF3081
aF-1483
aF-5919
aF-5442
aF382
aF4140
aF2524
aF-2854
aF-7230
aF-7122
aF-1725
aF3594
aF3459
aF-315
aF-3926
aF-4152
aF-1014
aF1500
aF-30
aF-3836
aF-5889
aF-3601
aF1363
aF3578
aF1657
aF-2541
aF-5615
aF-5180
aF-2127
aF-321
aF-783
aF-609
aF1056
aF2204
aF989
aF-2957
aF-6708
aF-7175
aF-2732
aF2799
aF4212
aF1941
aF-2324
aF-5483
aF-5539
aF-3246
aF-1506
aF-1230
aF-694
aF1415
aF3497
aF2816
aF-1357
aF-6125
aF-7983
aF-5248
aF1415
aF4911
aF3285
aF-1699
aF-5588
aF-4968
aF-1524
aF-271
aF-2371
aF-3971
aF-1756
aF2692
aF4299
aF1297
aF-4549
aF-8396
aF-7381
aF-1118
aF4473
aF4562
aF417
aF-5076
aF-7127
aF-4132
aF460
aF908
aF-2031
aF-3371
aF-269
aF3721
aF3210
aF-1996
aF-6836
aF-7772
aF-3153
aF3066
aF4715
aF2017
aF-3542
aF-7270
aF-6383
aF-1745
aF1861
aF1500
aF-893
aF-1928
aF-748
aF283
aF-1069
aF-4293
aF-5991
aF-3496
aF1433
aF4261
aF2416
aF-2490
aF-6268
aF-6056
aF-2210
aF1592
aF1949
aF-323
aF-2500
aF-2505
aF-1067
aF-952
aF-2825
aF-4457
aF-2974
aF1478
aF4352
aF2350
aF-3419
aF-7946
aF-7115
aF-1051
aF4120
aF3717
aF-663
aF-5033
aF-5812
aF-2698
aF508
aF377
aF-1879
aF-2880
aF-747
aF2260
aF2104
aF-1873
aF-6328
aF-7330
aF-2192
aF3946
aF5014
aF606
aF-5423
aF-8305
aF-5478
aF1230
aF4241
aF1800
aF-2855
aF-5069
aF-2701
aF1056
aF1343
aF-2006
aF-5171
aF-4480
aF162
aF3507
aF1989
aF-2777
aF-6431
aF-5382
aF-228
aF3246
aF1866
aF-2229
aF-4616
aF-2829
aF645
aF1213
aF-1857
aF-4802
aF-3965
aF405
aF3312
aF1590
aF-2958
aF-6358
aF-5540
aF-710
aF2895
aF1868
aF-1766
aF-4504
aF-3573
aF210
aF2218
aF28
aF-4036
aF-5940
aF-3081
aF1896
aF3253
aF98
aF-4638
aF-6142
aF-2495
aF2180
aF2459
aF-1302
aF-4367
aF-3436
aF93
aF1782
aF-426
aF-4162
aF-5574
aF-2534
aF2227
aF3658
aF837
aF-4041
aF-6931
aF-5145
aF164
aF3358
aF2044
aF-1524
aF-3816
aF-3059
aF-1092
aF-1067
aF-2879
aF-3643
aF-1256
aF2333
aF3098
aF-44
aF-4820
aF-7562
aF-5133
aF1061
aF4467
aF2692
aF-2337
aF-6016
aF-5454
aF-1267
aF1060
aF-1165
aF-3696
aF-2134
aF1946
aF3622
aF646
aF-4754
aF-7826
aF-5690
aF1140
aF5112
aF3707
aF-1895
aF-7050
aF-7718
aF-2824
aF3034
aF3426
aF-918
aF-5342
aF-4815
aF723
aF3712
aF574
aF-5139
aF-7931
aF-3990
aF3281
aF5707
aF2092
aF-4870
aF-9056
aF-7536
aF-419
aF5051
aF3760
aF-1613
aF-6377
aF-6127
aF-620
aF3311
aF1068
aF-4094
aF-6899
aF-3967
aF2321
aF4405
aF843
aF-4674
aF-7281
aF-4191
aF1205
aF2870
aF366
aF-2845
aF-3628
aF-1127
aF1595
aF911
aF-2794
aF-5888
aF-4918
aF-192
aF3268
aF2288
aF-1640
aF-4856
aF-4517
aF-1309
aF627
aF-492
aF-2347
aF-2213
aF149
aF1914
aF529
aF-3092
aF-5748
aF-4699
aF-347
aF2692
aF1425
aF-2495
aF-5210
aF-3540
aF1024
aF2962
aF307
aF-4147
aF-6104
aF-3303
aF1769
aF3357
aF640
aF-3757
aF-5881
aF-3733
aF322
aF1459
aF-1127
aF-3875
aF-3157
aF938
aF3646
aF1926
aF-3076
aF-7101
aF-7183
aF-2157
aF3348
aF4327
aF1575
aF-2774
aF-5383
aF-5002
aF-3344
aF-2958
aF-3163
aF-863
aF3087
aF4499
aF2271
aF-2811
aF-5668
aF-6133
aF-2698
aF2693
aF4383
aF3150
aF-1674
aF-6049
aF-7428
aF-6731
aF-4649
aF-1326
aF2280
aF4214
aF3951
aF574
aF-4759
aF-8515
aF-8765
aF-4019
aF2660
aF5315
aF3710
aF-628
aF-4907
aF-6503
aF-5574
aF-3314
aF-1010
aF1120
aF3220
aF3667
aF929
aF-4286
aF-8387
aF-7999
aF-2345
aF3744
aF4893
aF1497
aF-3858
aF-6974
aF-5426
aF-789
aF2100
aF892
aF-1953
aF-2719
aF-591
aF1167
aF-582
aF-4218
aF-5718
aF-2732
aF2388
aF3857
aF362
aF-4689
aF-7357
aF-5118
aF815
aF4360
aF3220
aF-810
aF-4782
aF-5699
aF-3441
aF-991
aF-882
aF-1937
aF-1178
aF1655
aF3118
aF590
aF-4479
aF-7820
aF-6202
aF228
aF4610
aF3853
aF-979
aF-5996
aF-7164
aF-3518
aF1009
aF1652
aF-1129
aF-3181
aF-1482
aF2411
aF3427
aF-1110
aF-7282
aF-9329
aF-4541
aF3175
aF5780
aF2921
aF-3372
aF-7745
aF-7264
aF-2058
aF2129
aF1122
aF-1746
aF-1857
aF1520
aF3776
aF1252
aF-4472
aF-8284
aF-7089
aF-101
aF4847
aF4378
aF-560
aF-6404
aF-8209
aF-4693
aF1564
aF3707
aF1298
aF-1829
aF-2261
aF-255
aF319
aF-2303
aF-5586
aF-6133
aF-2145
aF3369
aF4839
aF1588
aF-3839
aF-7328
aF-6657
aF-2106
aF1721
aF2073
aF941
aF420
aF465
aF-865
aF-4018
aF-6599
aF-5748
aF-646
aF3806
aF3994
aF-48
aF-5488
aF-7839
aF-4749
aF1195
aF3449
aF625
aF-3272
aF-3868
aF-546
aF2172
aF290
aF-4422
aF-6689
aF-3278
aF2625
aF4064
aF551
aF-4744
aF-7179
aF-3989
aF2578
aF5085
aF1675
aF-4588
aF-7765
aF-4514
aF2051
aF4219
aF203
aF-5427
aF-6950
aF-2168
aF3673
aF3520
aF-1831
aF-7173
aF-7511
aF-1465
aF4604
aF4629
aF-478
aF-6366
aF-8334
aF-4221
aF2569
aF4392
aF942
aF-4164
aF-6175
aF-3176
aF914
aF703
aF-2830
aF-4618
aF-1445
aF3307
aF3919
aF-458
aF-5832
aF-7801
aF-4317
aF1816
aF3921
aF1205
aF-3253
aF-5169
aF-2705
aF790
aF538
aF-2919
aF-5100
aF-2473
aF2538
aF4153
aF669
aF-5182
aF-8284
aF-5253
aF2030
aF5211
aF2033
aF-4063
aF-7538
aF-4567
aF1807
aF4194
aF588
aF-5134
aF-7391
aF-3180
aF3306
aF4645
aF342
aF-5663
aF-8107
aF-4633
aF2184
aF4684
aF1384
aF-3963
aF-6419
aF-3184
aF1971
aF2610
aF-1338
aF-4655
aF-1155
aF498
aF-4537
aF-6152
aF-15
aF4742
aF2474
aF-4015
aF-8434
aF-6393
aF1520
aF5968
aF3231
aF-3693
aF-8087
aF-6118
aF1459
aF5333
aF1667
aF-5139
aF-8138
aF-3706
aF3717
aF4826
aF-752
aF-7183
aF-7964
aF-1268
aF5172
aF4134
aF-2372
aF-8015
aF-6811
aF991
aF5702
aF2911
aF-4102
aF-7992
aF-6321
aF760
aF5144
aF3073
aF-2847
aF-7675
aF-6805
aF-788
aF3169
aF276
aF-4559
aF-4186
aF1772
aF5179
aF2178
aF-3528
aF-6719
aF-6907
aF-216
aF4514
aF4854
aF-471
aF-6794
aF-8111
aF-3800
aF3013
aF3204
aF-1952
aF-4886
aF-1011
aF4276
aF3456
aF-2341
aF-4645
aF-3764
aF-914
aF1500
aF1590
aF657
aF-2777
aF-3773
aF-3691
aF2099
aF5355
aF1950
aF-4612
aF-6760
aF-1094
aF4770
aF2417
aF-4024
aF-6524
aF-4701
aF523
aF1336
aF1308
aF-1294
aF-1774
aF-2324
aF532
aF4571
aF3921
aF-2019
aF-7644
aF-6911
aF579
aF5312
aF2197
aF-4619
aF-8264
aF-4460
aF3234
aF5225
aF425
aF-6117
aF-8150
aF-3020
aF3861
aF4245
aF-1155
aF-6698
aF-7267
aF-1292
aF4219
aF3496
aF-1844
aF-6511
aF-5753
aF152
aF3567
aF578
aF-4849
aF-6728
aF-2094
aF3722
aF3650
aF-1506
aF-6569
aF-7031
aF-1481
aF4053
aF3235
aF-2165
aF-6445
aF-4362
aF2073
aF4281
aF-82
aF-5364
aF-6839
aF-3132
aF3281
aF4736
aF1198
aF-4860
aF-7573
aF-5064
aF1838
aF4279
aF566
aF-4502
aF-4558
aF1046
aF4603
aF1345
aF-4797
aF-7954
aF-6774
aF200
aF3893
aF4251
aF-308
aF-4780
aF-6025
aF-3949
aF2753
aF4602
aF1330
aF-2194
aF-1157
aF2717
aF1767
aF-4356
aF-8117
aF-7363
aF-1062
aF3407
aF3483
aF553
aF-4159
aF-5124
aF-4617
aF1184
aF5044
aF3189
aF-1349
aF-3944
aF-2129
aF-117
aF-2567
aF-7515
aF-8495
aF-2135
aF4710
aF5698
aF1305
aF-5369
aF-8289
aF-5838
aF1529
aF4968
aF1514
aF-4147
aF-6016
aF-1499
aF3471
as.