(dp1
S'peak2peak'
p2
F0.0020589786436161833
sS'samples'
p3
(lp4
F-2232
aF-245
aF1939
aF2263
aF121
aF-2942
aF-4446
aF-4238
aF-2888
aF-145
aF2371
aF3433
aF3083
aF849
aF-2797
aF-5354
aF-5364
aF-3819
aF-489
aF2207
aF2620
aF2151
aF-1295
aF-4571
aF-5359
aF-4781
aF-1305
aF2930
aF4466
aF3935
aF1293
aF-2581
aF-5123
aF-5616
aF-4937
aF-3116
aF344
aF3302
aF4131
aF3065
aF-385
aF-4226
aF-5739
aF-5454
aF-3609
aF275
aF3348
aF3973
aF2716
aF-1199
aF-4756
aF-5560
aF-4591
aF-1760
aF1710
aF3305
aF2713
aF768
aF-1443
aF-3083
aF-3897
aF-3818
aF-3253
aF-2460
aF-917
aF1205
aF2643
aF2364
aF29
aF-3188
aF-5142
aF-4891
aF-3292
aF-640
aF2114
aF3138
aF2372
aF114
aF-2855
aF-4586
aF-4509
aF-3405
aF-1613
aF261
aF1453
aF1480
aF490
aF-863
aF-1982
aF-2695
aF-3333
aF-3922
aF-3686
aF-2117
aF401
aF2445
aF2569
aF1007
aF-1872
aF-4252
aF-4689
aF-4261
aF-1607
aF2178
aF3579
aF3393
aF328
aF-4157
aF-6032
aF-5911
aF-3147
aF2020
aF5142
aF5260
aF2416
aF-3049
aF-6359
aF-6098
aF-4008
aF154
aF3568
aF4197
aF2653
aF-1000
aF-4310
aF-5388
aF-4787
aF-3149
aF-1030
aF619
aF1435
aF1397
aF490
aF-969
aF-2539
aF-3846
aF-4156
aF-3106
aF-955
aF1278
aF2163
aF869
aF-1504
aF-3205
aF-3673
aF-2827
aF-1233
aF-230
aF-553
aF-1504
aF-2310
aF-1953
aF-138
aF1500
aF1103
aF-1515
aF-4280
aF-4943
aF-3448
aF-121
aF2872
aF3446
aF1615
aF-2045
aF-4682
aF-5216
aF-4018
aF-458
aF3068
aF3857
aF2516
aF-689
aF-3997
aF-4996
aF-4306
aF-2102
aF1242
aF3176
aF2433
aF-135
aF-2948
aF-3934
aF-3210
aF-1899
aF-63
aF629
aF-514
aF-1783
aF-1873
aF-685
aF492
aF-14
aF-2014
aF-3787
aF-3969
aF-2131
aF469
aF1835
aF1412
aF-247
aF-2400
aF-3691
aF-3504
aF-2213
aF-537
aF170
aF-401
aF-1525
aF-1786
aF-1008
aF-463
aF-860
aF-1729
aF-2413
aF-2654
aF-2654
aF-1794
aF90
aF1627
aF1759
aF-6
aF-2821
aF-4442
aF-4006
aF-2208
aF296
aF2070
aF1978
aF181
aF-2358
aF-3986
aF-3972
aF-2336
aF-156
aF899
aF550
aF-524
aF-1654
aF-2351
aF-2409
aF-1759
aF-889
aF-641
aF-1461
aF-2534
aF-2632
aF-1429
aF511
aF1455
aF268
aF-2041
aF-3801
aF-3991
aF-2556
aF36
aF2029
aF1962
aF-31
aF-2587
aF-4031
aF-3837
aF-2365
aF-387
aF833
aF424
aF-1044
aF-2027
aF-1780
aF-626
aF-91
aF-1340
aF-3226
aF-3802
aF-2672
aF-76
aF2227
aF2270
aF138
aF-2496
aF-3997
aF-4088
aF-2441
aF92
aF1341
aF823
aF-252
aF-845
aF-1009
aF-1749
aF-3171
aF-4150
aF-3795
aF-1742
aF1197
aF3061
aF2735
aF167
aF-3279
aF-4880
aF-4323
aF-2436
aF622
aF2586
aF2500
aF1518
aF-32
aF-2177
aF-4336
aF-5064
aF-4002
aF-1253
aF2152
aF3456
aF2476
aF-427
aF-3677
aF-5059
aF-4700
aF-2507
aF813
aF2703
aF2328
aF224
aF-2089
aF-3202
aF-3389
aF-2788
aF-1511
aF-579
aF-826
aF-1876
aF-2382
aF-1320
aF1063
aF2559
aF980
aF-2871
aF-5451
aF-5073
aF-2557
aF1260
aF3488
aF3537
aF1328
aF-2758
aF-5487
aF-5957
aF-4575
aF-1062
aF2870
aF4139
aF3377
aF1338
aF-2275
aF-4705
aF-4943
aF-4362
aF-1633
aF1964
aF2874
aF2771
aF722
aF-3460
aF-5804
aF-6084
aF-4017
aF765
aF4788
aF5318
aF3427
aF-10
aF-4129
aF-5896
aF-5232
aF-2997
aF1042
aF4007
aF4087
aF1999
aF-1275
aF-3820
aF-4634
aF-4370
aF-3074
aF-832
aF1111
aF1737
aF1166
aF52
aF-1187
aF-2359
aF-3208
aF-3506
aF-3153
aF-2080
aF-894
aF-125
aF733
aF1243
aF684
aF-954
aF-3031
aF-4377
aF-4329
aF-2965
aF-527
aF1890
aF2688
aF1893
aF-303
aF-3135
aF-4895
aF-5033
aF-3627
aF-989
aF1888
aF3201
aF2541
aF183
aF-3208
aF-5005
aF-5103
aF-3735
aF-106
aF3181
aF3920
aF3028
aF179
aF-3427
aF-5250
aF-5485
aF-4312
aF-1133
aF2558
aF4143
aF3387
aF933
aF-2784
aF-5020
aF-5098
aF-4248
aF-1972
aF1468
aF3802
aF3847
aF1866
aF-2059
aF-5240
aF-5609
aF-4181
aF-1121
aF2292
aF3672
aF2791
aF524
aF-2278
aF-4245
aF-4369
aF-3305
aF-1917
aF-843
aF-97
aF747
aF1397
aF1069
aF-747
aF-3036
aF-4238
aF-4187
aF-3239
aF-1281
aF1247
aF2890
aF2635
aF483
aF-2560
aF-4712
aF-5058
aF-3838
aF-1365
aF1473
aF2996
aF2284
aF-435
aF-3383
aF-4300
aF-3774
aF-1971
aF349
aF1111
aF907
aF805
aF295
aF-1087
aF-2793
aF-3476
aF-3307
aF-3125
aF-1978
aF287
aF2395
aF3035
aF1365
aF-1909
aF-4564
aF-5116
aF-4014
aF-1218
aF2032
aF3662
aF3124
aF359
aF-3191
aF-5143
aF-4837
aF-2955
aF-33
aF2031
aF1927
aF426
aF-1206
aF-2302
aF-2673
aF-2493
aF-2375
aF-2559
aF-2466
aF-1537
aF168
aF1653
aF1631
aF-264
aF-3025
aF-4336
aF-3683
aF-1689
aF790
aF1803
aF904
aF-729
aF-2043
aF-2494
aF-2079
aF-1433
aF-1525
aF-2590
aF-3484
aF-2750
aF53
aF2754
aF2801
aF-88
aF-3635
aF-4981
aF-4179
aF-1201
aF2407
aF3561
aF2547
aF169
aF-2614
aF-4196
aF-4560
aF-4126
aF-2219
aF792
aF3255
aF3750
aF1697
aF-2135
aF-4762
aF-4992
aF-3410
aF121
aF3035
aF3415
aF1382
aF-1744
aF-3671
aF-4194
aF-3585
aF-2199
aF-924
aF-377
aF-201
aF-61
aF-62
aF-296
aF-1042
aF-2001
aF-2795
aF-3098
aF-2837
aF-1986
aF-315
aF1554
aF1942
aF227
aF-2626
aF-4265
aF-3594
aF-1407
aF731
aF826
aF-573
aF-1495
aF-1331
aF-637
aF-452
aF-1293
aF-2609
aF-3706
aF-3767
aF-1843
aF1432
aF3186
aF2161
aF-975
aF-3918
aF-4838
aF-3994
aF-1979
aF434
aF2103
aF2455
aF1402
aF-980
aF-3666
aF-4811
aF-4219
aF-2210
aF667
aF2659
aF2582
aF519
aF-2359
aF-4036
aF-3929
aF-2397
aF-280
aF405
aF-441
aF-1095
aF-707
aF-198
aF-454
aF-1870
aF-3527
aF-3751
aF-2335
aF-187
aF1221
aF812
aF-645
aF-1879
aF-2337
aF-1916
aF-1301
aF-1681
aF-2643
aF-2892
aF-1983
aF-182
aF1512
aF1771
aF496
aF-1673
aF-3827
aF-4927
aF-4538
aF-2088
aF1807
aF3712
aF2989
aF44
aF-3912
aF-5243
aF-4750
aF-2793
aF1385
aF4122
aF4382
aF2263
aF-2588
aF-6037
aF-6078
aF-4362
aF-730
aF3331
aF4717
aF3688
aF877
aF-3190
aF-5695
aF-5229
aF-3488
aF-1025
aF1799
aF2826
aF2328
aF354
aF-2463
aF-4518
aF-5138
aF-4093
aF-1451
aF1527
aF2817
aF1906
aF-233
aF-2423
aF-3754
aF-3852
aF-3110
aF-1541
aF421
aF1350
aF642
aF-953
aF-2402
aF-2841
aF-2321
aF-1631
aF-1247
aF-1269
aF-1778
aF-2295
aF-2064
aF-678
aF1189
aF1743
aF-106
aF-2784
aF-3891
aF-3625
aF-1979
aF883
aF2389
aF1980
aF186
aF-2211
aF-3792
aF-4128
aF-3422
aF-2024
aF-605
aF627
aF1686
aF1942
aF522
aF-2241
aF-4351
aF-4815
aF-3709
aF-675
aF2574
aF3843
aF2825
aF-115
aF-3616
aF-5198
aF-4649
aF-2698
aF468
aF2735
aF2970
aF1751
aF-517
aF-3070
aF-4638
aF-4496
aF-3071
aF-799
aF1222
aF1825
aF1538
aF902
aF-593
aF-2881
aF-4497
aF-4421
aF-2858
aF-68
aF2369
aF2603
aF1096
aF-1324
aF-3585
aF-4153
aF-3246
aF-1618
aF-28
aF680
aF524
aF60
aF-482
aF-1306
aF-2380
aF-3184
aF-3284
aF-2641
aF-1458
aF-23
aF1381
aF1867
aF570
aF-2068
aF-4238
aF-4668
aF-3282
aF-651
aF1430
aF1695
aF858
aF-248
aF-1403
aF-2516
aF-3271
aF-3761
aF-3602
aF-1888
aF775
aF2572
aF2691
aF887
aF-2339
aF-4783
aF-5225
aF-3945
aF-850
aF2701
aF3864
aF2452
aF-566
aF-3865
aF-5045
aF-4356
aF-2622
aF388
aF2822
aF2946
aF1286
aF-1325
aF-3700
aF-4666
aF-4174
aF-2299
aF427
aF2114
aF2025
aF202
aF-2327
aF-3789
aF-3802
aF-2646
aF-863
aF383
aF365
aF-677
aF-1929
aF-2594
aF-2206
aF-976
aF103
aF35
aF-1378
aF-2976
aF-3614
aF-2876
aF-706
aF1594
aF2307
aF921
aF-1909
aF-4301
aF-4750
aF-3284
aF-462
aF2167
aF2823
aF1646
aF-679
aF-3209
aF-4930
aF-5246
aF-3844
aF-540
aF2986
aF3996
aF2130
aF-1700
aF-4628
aF-4846
aF-3394
aF-413
aF2161
aF2059
aF193
aF-1632
aF-2382
aF-2103
aF-2022
aF-2741
aF-3134
aF-2212
aF-163
aF1345
aF864
aF-900
aF-2317
aF-2723
aF-2202
aF-1569
aF-1770
aF-2179
aF-1827
aF-857
aF247
aF895
aF224
aF-1522
aF-3101
aF-3707
aF-3385
aF-1752
aF554
aF1993
aF2010
aF634
aF-1862
aF-4125
aF-4753
aF-3693
aF-1146
aF1802
aF3147
aF2297
aF-350
aF-3333
aF-4586
aF-4076
aF-2240
aF700
aF2433
aF1836
aF-246
aF-2302
aF-3317
aF-3384
aF-2795
aF-1945
aF-1189
aF-27
aF704
aF278
aF-740
aF-1691
aF-2670
aF-3514
aF-3219
aF-2049
aF-557
aF713
aF914
aF100
aF-1108
aF-2440
aF-3484
aF-3592
aF-2523
aF-198
aF1737
aF1609
aF-371
aF-2669
aF-3704
aF-2897
aF-940
aF598
aF475
aF-1289
aF-3088
aF-3181
aF-1681
aF582
aF1791
aF461
aF-2078
aF-3566
aF-3377
aF-2304
aF-1214
aF-436
aF89
aF352
aF88
aF-990
aF-2304
aF-3083
aF-3341
aF-3026
aF-1740
aF611
aF2479
aF2307
aF-15
aF-3236
aF-5153
aF-5020
aF-2669
aF1455
aF4240
aF3632
aF250
aF-3841
aF-5189
aF-4101
aF-2018
aF979
aF2905
aF2854
aF1356
aF-1316
aF-3972
aF-5105
aF-4447
aF-2096
aF976
aF2677
aF2375
aF750
aF-1601
aF-3729
aF-4452
aF-3626
aF-1581
aF974
aF2343
aF1743
aF-373
aF-3088
aF-4678
aF-3989
aF-1280
aF1904
aF2830
aF431
aF-3071
aF-4685
aF-3830
aF-1255
aF1509
aF2531
aF1431
aF-1063
aF-3463
aF-4216
aF-3312
aF-1386
aF880
aF1855
aF1084
aF-578
aF-2374
aF-3611
aF-3894
aF-2899
aF-581
aF1713
aF2294
aF1054
aF-1180
aF-3216
aF-4369
aF-4170
aF-2187
aF799
aF2890
aF2900
aF642
aF-2773
aF-4717
aF-4935
aF-3822
aF-1453
aF1351
aF2776
aF2086
aF-335
aF-3255
aF-4615
aF-3884
aF-2137
aF25
aF1652
aF1308
aF-538
aF-2251
aF-2978
aF-2606
aF-1715
aF-1297
aF-1291
aF-1185
aF-992
aF-840
aF-969
aF-1334
aF-1482
aF-1389
aF-1510
aF-1953
aF-2339
aF-2101
aF-1256
aF-283
aF455
aF272
aF-1168
aF-2841
aF-3442
aF-2549
aF-963
aF-144
aF-628
aF-1405
aF-1185
aF-282
aF-163
aF-1158
aF-2317
aF-3011
aF-2924
aF-1978
aF-954
aF83
aF1094
aF1212
aF-268
aF-2661
aF-4202
aF-4152
aF-2527
aF441
aF2775
aF2898
aF832
aF-2338
aF-4117
aF-4071
aF-3075
aF-859
aF1307
aF2277
aF2283
aF1085
aF-1438
aF-3694
aF-4380
aF-3864
aF-1336
aF1975
aF3603
aF3006
aF-249
aF-4124
aF-5559
aF-4613
aF-2407
aF663
aF2837
aF2662
aF681
aF-2145
aF-4339
aF-4736
aF-3306
aF-718
aF1552
aF2131
aF651
aF-1942
aF-3714
aF-3607
aF-1873
aF357
aF1269
aF195
aF-1774
aF-3285
aF-3319
aF-1544
aF681
aF1585
aF595
aF-1439
aF-3186
aF-3937
aF-3277
aF-1596
aF210
aF1529
aF1776
aF698
aF-1446
aF-3546
aF-4417
aF-3994
aF-1694
aF1858
aF3708
aF2805
aF-582
aF-4216
aF-5371
aF-4071
aF-966
aF2145
aF2955
aF1581
aF-799
aF-2967
aF-3966
aF-3882
aF-2896
aF-994
aF1142
aF2088
aF970
aF-1561
aF-3567
aF-3679
aF-2032
aF81
aF467
aF-1190
aF-2809
aF-2579
aF-753
aF1155
aF1371
aF-760
aF-3159
aF-3704
aF-2869
aF-1181
aF666
aF1029
aF165
aF-583
aF-903
aF-1537
aF-2867
aF-3639
aF-3159
aF-1661
aF758
aF2239
aF1765
aF-342
aF-2957
aF-4715
aF-4793
aF-2922
aF261
aF2895
aF3068
aF788
aF-2455
aF-4572
aF-4520
aF-2825
aF-514
aF1249
aF1779
aF731
aF-959
aF-2241
aF-2522
aF-2788
aF-2308
aF-1035
aF-308
aF59
aF-50
aF-772
aF-1578
aF-2150
aF-2391
aF-2213
aF-1686
aF-968
aF-232
aF-138
aF-912
aF-1962
aF-2386
aF-1743
aF-567
aF-260
aF-1311
aF-2414
aF-2539
aF-1717
aF-413
aF421
aF220
aF-870
aF-2427
aF-3452
aF-2989
aF-1186
aF580
aF716
aF-875
aF-2375
aF-2443
aF-1615
aF-969
aF-993
aF-1399
aF-1721
aF-1666
aF-1191
aF-593
aF-172
aF-382
aF-1655
aF-3220
aF-3555
aF-2083
aF189
aF1424
aF692
aF-1024
aF-2322
aF-3115
aF-3381
aF-2773
aF-1450
aF26
aF1433
aF1448
aF-357
aF-2704
aF-4073
aF-4034
aF-2501
aF133
aF2126
aF1993
aF-103
aF-2697
aF-3920
aF-3399
aF-1925
aF-248
aF658
aF639
aF-34
aF-1245
aF-2682
aF-3541
aF-3290
aF-1708
aF480
aF1610
aF1058
aF-843
aF-2848
aF-3768
aF-3415
aF-2023
aF-198
aF1059
aF1186
aF383
aF-1212
aF-3117
aF-4382
aF-4057
aF-1520
aF1886
aF3552
aF2436
aF-996
aF-4483
aF-5671
aF-4461
aF-1125
aF2737
aF4099
aF2561
aF-971
aF-4244
aF-4948
aF-3817
aF-964
aF2337
aF3341
aF1931
aF-953
aF-3729
aF-4672
aF-3797
aF-1699
aF682
aF1835
aF1193
aF-657
aF-2531
aF-3285
aF-3173
aF-2290
aF-513
aF731
aF704
aF-341
aF-1749
aF-2970
aF-2901
aF-1788
aF-792
aF-362
aF-390
aF-811
aF-1180
aF-1603
aF-2481
aF-2948
aF-2186
aF-556
aF947
aF1137
aF-385
aF-2447
aF-3770
aF-3883
aF-2677
aF-258
aF2051
aF2492
aF628
aF-2372
aF-4070
aF-3933
aF-2643
aF114
aF2530
aF2739
aF1020
aF-1775
aF-4141
aF-4600
aF-3297
aF-1224
aF648
aF1403
aF1109
aF317
aF-1062
aF-3078
aF-4532
aF-4310
aF-2292
aF756
aF2710
aF2567
aF796
aF-1675
aF-3813
aF-4819
aF-4389
aF-2283
aF921
aF3172
aF3523
aF1772
aF-1819
aF-4788
aF-5261
aF-3847
aF-466
aF2762
aF3115
aF1535
aF-1890
aF-4607
aF-4948
aF-4036
aF-1557
aF1739
aF3504
aF2803
aF-228
aF-3739
aF-5148
aF-4107
aF-1065
aF2225
aF2936
aF768
aF-2500
aF-4559
aF-4112
aF-1590
aF1484
aF2556
aF688
aF-2339
aF-4299
aF-4363
aF-2651
aF-129
aF1845
aF2379
aF979
aF-1704
aF-3827
aF-4439
aF-3678
aF-1555
aF911
aF2265
aF2315
aF888
aF-1671
aF-4121
aF-5187
aF-4292
aF-1271
aF2338
aF4003
aF3259
aF-106
aF-4111
aF-5852
aF-5428
aF-3031
aF1185
aF4183
aF3942
aF1193
aF-2897
aF-5388
aF-4909
aF-2814
aF449
aF3054
aF2904
aF271
aF-2979
aF-4405
aF-3701
aF-1630
aF283
aF446
aF-692
aF-1820
aF-2260
aF-1982
aF-1238
aF-547
aF-503
aF-1114
aF-1919
aF-2494
aF-2561
aF-2040
aF-999
aF344
aF1151
aF341
aF-2144
aF-4077
aF-3930
aF-2246
aF756
aF2941
aF2553
aF-306
aF-3647
aF-4844
aF-4047
aF-1729
aF1250
aF2603
aF1773
aF-424
aF-2765
aF-3860
aF-3491
aF-2065
aF-504
aF23
aF-209
aF-641
aF-1041
aF-1480
aF-1946
aF-2629
aF-2422
aF-1258
aF-467
aF-333
aF-601
aF-1337
aF-2074
aF-2186
aF-1799
aF-917
aF-196
aF-908
aF-2312
aF-2904
aF-2403
aF-1008
aF248
aF295
aF-503
aF-1325
aF-2432
aF-3528
aF-3662
aF-2403
aF336
aF2572
aF2458
aF122
aF-2992
aF-4647
aF-4524
aF-2846
aF510
aF3309
aF3289
aF619
aF-3100
aF-5126
aF-4463
aF-2158
aF637
aF2324
aF1937
aF78
aF-2187
aF-3750
aF-4058
aF-2922
aF-808
aF978
aF1400
aF313
aF-1602
aF-3225
aF-3658
aF-2660
aF-639
aF952
aF597
aF-1236
aF-2768
aF-2581
aF-937
aF247
aF-336
aF-1868
aF-2714
aF-2452
aF-1056
aF105
aF-35
aF-825
aF-1576
aF-2107
aF-2220
aF-2084
aF-1852
aF-1509
aF-1001
aF-77
aF872
aF223
aF-2181
aF-4102
aF-4154
aF-2188
aF1238
aF3177
aF2233
aF-923
aF-3943
aF-4976
aF-4055
aF-1263
aF1814
aF2938
aF2187
aF-221
aF-2890
aF-4318
aF-4645
aF-3234
aF152
aF3009
aF3530
aF1659
aF-1938
aF-4445
aF-4802
aF-3650
aF-616
aF2453
aF3553
aF2614
aF-361
aF-3699
aF-5054
aF-4574
aF-2090
aF1673
aF3655
aF2946
aF-335
aF-3963
aF-5176
aF-4313
aF-1748
aF1575
aF2978
aF2169
aF-326
aF-3208
aF-4791
aF-4634
aF-2607
aF622
aF2967
aF2748
aF128
aF-3193
aF-4670
aF-4032
aF-1482
aF1738
aF3078
aF1938
aF-939
aF-3905
aF-5233
aF-4563
aF-2089
aF1447
aF3190
aF2727
aF-236
aF-3898
aF-5493
aF-4882
aF-1325
aF3035
aF4537
aF3211
aF-193
aF-3842
aF-5347
aF-4841
aF-2837
aF457
aF2837
aF2984
aF1599
aF-793
aF-3082
aF-4051
aF-4161
aF-3270
aF-731
aF1674
aF2658
aF2265
aF497
aF-2207
aF-4284
aF-4626
aF-3392
aF-187
aF2954
aF3403
aF1371
aF-2129
aF-4539
aF-4582
aF-3363
aF-1250
aF1129
aF2066
aF1125
aF-838
aF-2626
aF-3284
aF-2793
aF-2067
aF-1645
aF-1105
aF-504
aF-221
aF-273
aF-608
aF-1275
aF-1921
aF-2794
aF-3547
aF-2923
aF-785
aF1362
aF1755
aF-82
aF-2721
aF-3787
aF-2752
aF-971
aF85
aF-134
aF-1495
aF-2754
aF-2585
aF-1281
aF112
aF729
aF-3
aF-1510
aF-2835
aF-3621
aF-3664
aF-2624
aF-133
aF2754
aF3517
aF978
aF-3261
aF-5686
aF-5330
aF-2606
aF1787
aF4499
aF4500
aF1314
aF-3648
aF-6318
aF-5976
aF-3483
aF798
aF3242
aF3405
aF2035
aF-1930
aF-5024
aF-5636
aF-4597
aF-1347
aF2439
aF3482
aF2526
aF498
aF-2317
aF-3850
aF-4603
aF-4413
aF-2033
aF1479
aF3529
aF3302
aF645
aF-2949
aF-4950
aF-5348
aF-4190
aF-1716
aF1295
aF3007
aF2569
aF443
aF-2610
aF-4220
aF-4159
aF-2675
aF598
aF2870
aF2378
aF-158
aF-3127
aF-4255
aF-3138
aF-902
aF1033
aF1021
aF-988
aF-3096
aF-3507
aF-1991
aF392
aF1684
aF902
aF-1203
aF-3220
aF-4027
aF-3433
aF-1740
aF549
aF1986
aF1531
aF-621
aF-3225
aF-4434
aF-3577
aF-1252
aF1198
aF1984
aF377
aF-2167
aF-3369
aF-3003
aF-1487
aF634
aF1103
aF-674
aF-2875
aF-3706
aF-2158
aF953
aF2775
aF1656
aF-1748
aF-4715
aF-5238
aF-3390
aF282
aF3384
aF3395
aF637
aF-3034
aF-5117
aF-4866
aF-2943
aF79
aF2464
aF2943
aF1561
aF-1284
aF-3938
aF-4757
aF-3754
aF-1197
aF1509
aF2397
aF1168
aF-1070
aF-2825
aF-3300
aF-2903
aF-2313
aF-1938
aF-1592
aF-500
aF1151
aF1799
aF482
aF-2289
aF-4370
aF-4514
aF-2544
aF929
aF3184
aF2702
aF-28
aF-3335
aF-4833
aF-4094
aF-1720
aF1319
aF2692
aF1433
aF-1159
aF-3365
aF-4165
aF-3459
aF-1546
aF826
aF1684
aF341
aF-2034
aF-3947
aF-3811
aF-1349
aF1482
aF2104
aF-31
aF-3117
aF-4565
aF-3505
aF-306
aF2702
aF2798
aF-218
aF-3818
aF-4845
aF-3370
aF-123
aF2670
aF2771
aF492
aF-2524
aF-4202
aF-4260
aF-2457
aF501
aF2394
aF2288
aF655
aF-1753
aF-3613
aF-3867
aF-3366
aF-1967
aF587
aF2331
aF2300
aF216
aF-2597
aF-4430
aF-4575
aF-3084
aF-684
aF1532
aF2528
aF1787
aF-806
aF-3610
aF-4826
aF-4187
aF-1717
aF1339
aF2695
aF1630
aF-939
aF-3162
aF-4085
aF-3445
aF-914
aF1429
aF1586
aF13
aF-2042
aF-3282
aF-3157
aF-2116
aF-756
aF463
aF698
aF-477
aF-2376
aF-3856
aF-3912
aF-2261
aF338
aF2280
aF2269
aF176
aF-2740
aF-4702
aF-5024
aF-3269
aF496
aF3695
aF4162
aF1891
aF-2349
aF-5078
aF-5222
aF-3537
aF550
aF3569
aF3990
aF1810
aF-3020
aF-5940
aF-5432
aF-3408
aF-134
aF2711
aF3271
aF2378
aF-332
aF-3542
aF-4950
aF-4734
aF-2690
aF706
aF2846
aF2884
aF1333
aF-1341
aF-3766
aF-4668
aF-4045
aF-2274
aF-109
aF1135
aF1299
aF699
aF-594
aF-2133
aF-3262
aF-3713
aF-3274
aF-1560
aF717
aF1815
aF1311
aF-314
aF-2168
aF-3245
aF-3344
aF-2481
aF-1051
aF-244
aF-399
aF-695
aF-641
aF-426
aF-689
aF-1595
aF-2380
aF-2717
aF-2687
aF-2053
aF-1002
aF-97
aF594
aF699
aF-248
aF-1777
aF-2964
aF-3424
aF-3249
aF-2372
aF-763
aF734
aF1449
aF1064
aF-675
aF-2586
aF-3488
aF-3772
aF-3463
aF-1721
aF829
aF2770
aF3039
aF1128
aF-2342
aF-4904
aF-5411
aF-4220
aF-742
aF2910
aF3953
aF3069
aF-112
aF-3886
aF-5372
aF-5332
aF-3358
aF1031
aF4258
aF4899
aF3303
aF-1171
aF-5403
aF-6311
aF-5172
aF-2004
aF2197
aF3623
aF3515
aF1216
aF-3247
aF-5331
aF-5602
aF-4161
aF50
aF3239
aF4299
aF3183
aF-1452
aF-5287
aF-5742
aF-4360
aF-1016
aF2480
aF3336
aF2368
aF-175
aF-3138
aF-4416
aF-4221
aF-2333
aF583
aF1951
aF1128
aF-787
aF-2436
aF-2940
aF-2007
aF-603
aF-55
aF-593
aF-1669
aF-2519
aF-2358
aF-1392
aF-590
aF-234
aF-426
aF-1011
aF-1705
aF-2320
aF-2540
aF-2321
aF-1836
aF-1099
aF-182
aF686
aF1060
aF197
aF-2025
aF-4287
aF-5029
aF-3711
aF-311
aF2958
aF3932
aF2252
aF-1831
aF-5102
aF-5794
aF-4128
aF192
aF4104
aF4639
aF2124
aF-2108
aF-5209
aF-5312
aF-3392
aF-190
aF2447
aF2262
aF-174
aF-2457
aF-2857
aF-1838
aF-824
aF-994
aF-2266
aF-3157
aF-2603
aF-722
aF1496
aF2349
aF843
aF-2295
aF-4366
aF-4375
aF-2506
aF976
aF3297
aF2954
aF449
aF-3007
aF-4788
aF-4271
aF-2377
aF604
aF2718
aF2402
aF10
aF-2932
aF-4197
aF-3526
aF-1747
aF415
aF1378
aF453
aF-1347
aF-2732
aF-2857
aF-1737
aF-624
aF-504
aF-1059
aF-1574
aF-1617
aF-1322
aF-1206
aF-1379
aF-1497
aF-1511
aF-1550
aF-1475
aF-1044
aF-768
aF-1302
aF-2122
aF-2320
aF-1628
aF-466
aF-34
aF-739
aF-1855
aF-2555
aF-2420
aF-1797
aF-1066
aF-439
aF-136
aF-426
aF-1526
aF-2604
aF-2648
aF-2128
aF-1371
aF-676
aF42
aF229
aF-266
aF-1803
aF-3681
aF-3905
aF-2020
aF1029
aF2693
aF1509
aF-1580
aF-4116
aF-4548
aF-3001
aF-32
aF2423
aF2581
aF305
aF-2936
aF-4735
aF-4258
aF-2200
aF530
aF2108
aF1592
aF-258
aF-2472
aF-3495
aF-3275
aF-2326
aF-195
aF1266
aF1022
aF-459
aF-1900
aF-2976
aF-3196
aF-2100
aF-773
aF207
aF-108
aF-1470
aF-2671
aF-2466
aF-651
aF770
aF403
aF-1334
aF-3085
aF-3648
aF-2871
aF-1086
aF842
aF1714
aF913
aF-1289
aF-3468
aF-4181
aF-3236
aF-833
aF1576
aF2145
aF1042
aF-817
aF-2551
aF-3531
aF-3768
aF-3367
aF-2118
aF-129
aF1643
aF2367
aF1532
aF-924
aF-3607
aF-4718
aF-4456
aF-2757
aF782
aF3662
aF4209
aF1997
aF-2385
aF-5606
aF-5946
aF-4144
aF-212
aF3080
aF3555
aF2084
aF-1677
aF-4516
aF-4889
aF-3582
aF-248
aF2668
aF2914
aF1340
aF-1022
aF-3010
aF-3280
aF-2650
aF-1933
aF-1024
aF-859
aF-1322
aF-933
aF337
aF1031
aF177
aF-1731
aF-3399
aF-3981
aF-3429
aF-1935
aF174
aF1868
aF1935
aF172
aF-2383
aF-4026
aF-3948
aF-2530
aF-712
aF391
aF412
aF-209
aF-955
aF-1431
aF-1441
aF-1475
aF-2326
aF-3448
aF-3550
aF-1987
aF995
aF3001
aF2428
aF-466
aF-3650
aF-5093
aF-4739
aF-2756
aF494
aF2894
aF3245
aF1583
aF-1541
aF-4149
aF-4924
aF-4304
aF-2869
aF-832
aF1329
aF2568
aF2609
aF811
aF-2313
aF-4755
aF-5638
aF-4788
aF-1999
aF1681
aF3470
aF3489
aF1283
aF-2990
aF-5640
aF-5940
aF-4041
aF327
aF3805
aF3818
aF2305
aF-771
aF-3835
aF-4680
aF-4588
aF-2814
aF559
aF2983
aF3706
aF2867
aF161
aF-3295
aF-5103
aF-4978
aF-3029
aF581
aF3300
aF3460
aF1545
aF-1561
aF-4131
aF-4796
aF-3729
aF-906
aF1982
aF2442
aF432
aF-2258
aF-3597
aF-3089
aF-1467
aF132
aF393
aF-1040
aF-2918
aF-3661
aF-2559
aF-53
aF2019
aF2009
aF-185
aF-3010
aF-4460
aF-4304
aF-2987
aF-231
aF2339
aF3117
aF2053
aF-792
aF-4113
aF-5755
aF-5279
aF-2739
aF1027
aF3672
aF3714
aF1513
aF-1850
aF-4490
aF-5218
aF-4540
aF-2285
aF1070
aF3376
aF3667
aF2135
aF-1128
aF-4265
aF-5145
aF-4479
aF-2069
aF1592
aF3371
aF2981
aF542
aF-2871
aF-4755
aF-4853
aF-3815
aF-1279
aF1884
aF3397
aF2219
aF-445
aF-3256
aF-4515
aF-3717
aF-2024
aF-665
aF474
aF853
aF-271
aF-1634
aF-1983
aF-1497
aF-1184
aF-1893
aF-2811
aF-2571
aF-869
aF861
aF872
aF-643
aF-2229
aF-2904
aF-2711
aF-2127
aF-1396
aF-599
aF-256
aF-766
aF-1447
aF-1381
aF-763
aF-669
aF-1679
aF-3062
aF-3479
aF-2246
aF-328
aF836
aF767
aF-248
aF-1531
aF-2614
aF-3352
aF-3253
aF-2170
aF-583
aF706
aF1243
aF646
aF-1091
aF-2904
aF-3744
aF-3419
aF-1494
aF971
aF1646
aF492
aF-1109
aF-2319
aF-2886
aF-3256
aF-3229
aF-1890
aF571
aF2084
aF1408
aF-1007
aF-3271
aF-4126
aF-3484
aF-1443
aF931
aF1932
aF930
aF-1312
aF-3201
aF-3668
aF-2089
aF291
aF1316
aF381
aF-1278
aF-2569
aF-3134
aF-2738
aF-1613
aF-202
aF491
aF-255
aF-1608
aF-2236
aF-1785
aF-1110
aF-1195
aF-1984
aF-2348
aF-1657
aF-625
aF33
aF-102
aF-1263
aF-2373
aF-3047
aF-2882
aF-1505
aF285
aF1048
aF309
aF-1603
aF-3219
aF-3249
aF-2209
aF-902
aF233
aF441
aF-338
aF-1627
aF-2981
aF-3249
aF-1745
aF187
aF669
aF-736
aF-2743
aF-3528
aF-2270
aF125
aF1703
aF1239
aF-982
aF-3499
aF-4540
aF-3749
aF-1411
aF1393
aF2741
aF1988
aF-517
aF-3291
aF-4512
aF-4082
aF-2251
aF604
aF2192
aF1507
aF-359
aF-2064
aF-2913
aF-3063
aF-2955
aF-2743
aF-2179
aF-704
aF1262
aF2374
aF1516
aF-1162
aF-4026
aF-5264
aF-4417
aF-1536
aF1960
aF3525
aF2615
aF-123
aF-3178
aF-4718
aF-4663
aF-3020
aF68
aF2413
aF2582
aF1081
aF-1120
aF-2993
aF-3929
aF-3936
aF-3171
aF-1643
aF262
aF1553
aF1606
aF434
aF-1585
aF-3483
aF-4225
aF-3559
aF-1711
aF349
aF1149
aF801
aF43
aF-836
aF-1821
aF-3075
aF-3869
aF-3567
aF-2269
aF-440
aF1170
aF1875
aF1191
aF-869
aF-3123
aF-4073
aF-3631
aF-2097
aF-92
aF1031
aF1185
aF826
aF-274
aF-2074
aF-3474
aF-3953
aF-3480
aF-1798
aF214
aF1603
aF2196
aF1677
aF-434
aF-3269
aF-4956
aF-4855
aF-3218
aF68
aF2958
aF3393
aF2119
aF-766
aF-3729
aF-4718
aF-4729
aF-3468
aF180
aF3455
aF4274
aF3017
aF-632
aF-4248
aF-5319
aF-4782
aF-2119
aF1700
aF3787
aF3778
aF1416
aF-2415
aF-4916
aF-5512
aF-4472
aF-1654
aF1823
aF3293
aF2234
aF-383
aF-2920
aF-3755
aF-3350
aF-2843
aF-1986
aF-622
aF373
aF998
aF1070
aF78
aF-1813
aF-3559
aF-4049
aF-3038
aF-903
aF834
aF701
aF-710
aF-1676
aF-1416
aF-665
aF-524
aF-1474
aF-2929
aF-3882
aF-3494
aF-1338
aF1620
aF3321
aF2745
aF-234
aF-3942
aF-5479
aF-4789
aF-2009
aF1976
aF3728
aF3231
aF534
aF-3320
aF-5055
aF-5091
aF-3736
aF-181
aF3105
aF4054
aF2919
aF-406
aF-3850
aF-5228
aF-4819
aF-2447
aF1010
aF2951
aF2738
aF1153
aF-1051
aF-2937
aF-3977
aF-4007
aF-3122
aF-1239
aF960
aF2168
aF1906
aF171
aF-2488
aF-4247
aF-4149
aF-2843
aF-572
aF1376
aF1544
aF540
aF-812
aF-2191
aF-3089
aF-3173
aF-2729
aF-1883
aF-918
aF-419
aF-231
aF-43
aF-4
aF-287
aF-1381
aF-3029
aF-4004
aF-3853
aF-2454
aF-18
aF1957
aF2168
aF719
aF-1881
aF-3733
aF-3871
aF-3237
aF-1803
aF147
aF1307
aF1430
aF577
aF-1155
aF-3056
aF-4022
aF-3732
aF-2506
aF-608
aF1142
aF1849
aF1028
aF-1005
aF-2883
aF-3786
aF-3644
aF-1763
aF546
aF1470
aF973
aF-369
aF-1822
aF-2572
aF-2627
aF-2492
aF-2301
aF-1969
aF-1186
aF28
aF882
aF521
aF-1087
aF-2870
aF-3654
aF-3159
aF-1889
aF-507
aF511
aF549
aF-279
aF-1370
aF-2741
aF-3507
aF-2851
aF-1272
aF233
aF736
aF-169
aF-1760
aF-2630
aF-2278
aF-1201
aF-477
aF-790
aF-1533
aF-1841
aF-1827
aF-1435
aF-509
aF-132
aF-640
aF-1686
aF-2474
aF-2722
aF-2074
aF-475
aF278
aF-289
aF-1110
aF-1653
aF-1743
aF-1265
aF-1193
aF-1625
aF-1853
aF-1942
aF-1830
aF-1038
aF65
aF484
aF-259
aF-1931
aF-3395
aF-3445
aF-2123
aF-342
aF794
aF708
aF-304
aF-1658
aF-2910
aF-3328
aF-2619
aF-1168
aF219
aF508
aF-320
aF-1516
aF-2467
aF-2749
aF-2079
aF-761
aF315
aF-43
aF-1869
aF-3369
aF-3195
aF-1510
aF505
aF1411
aF602
aF-1521
aF-3439
aF-4242
aF-3729
aF-1719
aF1117
aF2829
aF2227
aF-487
aF-3713
aF-5260
aF-4706
aF-2216
aF1346
aF3391
aF2709
aF157
aF-2674
aF-4226
aF-4540
aF-3794
aF-1893
aF839
aF3148
aF3423
aF1211
aF-2303
aF-4575
aF-5010
aF-3852
aF-766
aF2469
aF3948
aF3098
aF46
aF-3539
aF-5226
aF-4414
aF-1791
aF1583
aF3008
aF1787
aF-866
aF-3069
aF-3691
aF-3228
aF-2141
aF-886
aF-117
aF77
aF-224
aF-979
aF-1915
aF-2563
aF-2509
aF-1520
aF-160
aF264
aF-862
aF-2483
aF-3280
aF-2590
aF-453
aF1457
aF1730
aF269
aF-2388
aF-4662
aF-4978
aF-3244
aF219
aF3181
aF3549
aF1534
aF-2314
aF-5128
aF-5413
aF-3762
aF-88
aF3278
aF3863
aF2135
aF-958
aF-3619
aF-4521
aF-4423
aF-3387
aF-1221
aF1230
aF2947
aF3014
aF999
aF-2373
aF-4801
aF-4993
aF-3644
aF-688
aF2393
aF3270
aF2358
aF-124
aF-2902
aF-4148
aF-4383
aF-3487
aF-731
aF1990
aF3126
aF2343
aF-300
aF-3137
aF-4573
aF-4347
aF-2588
aF73
aF1721
aF1450
aF-61
aF-1863
aF-2743
aF-1835
aF-668
aF-959
aF-2038
aF-2917
aF-2955
aF-1139
aF1263
aF2335
aF1496
aF-1151
aF-3874
aF-4758
aF-3825
aF-1112
aF2013
aF3067
aF1917
aF-549
aF-2957
aF-4104
aF-4113
aF-3280
aF-1393
aF856
aF1931
aF1406
aF87
aF-1112
aF-2051
aF-3129
aF-4072
aF-4094
aF-2427
aF714
aF3257
aF3562
aF1212
aF-2649
aF-5148
aF-5255
aF-3518
aF-180
aF2553
aF3097
aF1841
aF-475
aF-2817
aF-4316
aF-4695
aF-3926
aF-1396
aF1803
aF3401
aF2771
aF-299
aF-3863
aF-5337
aF-4613
aF-2470
aF302
aF2036
aF1856
aF583
aF-763
aF-1711
aF-2517
aF-3473
aF-3708
aF-2760
aF-873
aF1357
aF2258
aF1273
aF-947
aF-3333
aF-4570
aF-4038
aF-1900
aF648
aF1865
aF953
aF-1129
aF-2596
aF-2869
aF-2286
aF-1237
aF-698
aF-1067
aF-1670
aF-2076
aF-1648
aF-267
aF632
aF16
aF-884
aF-2355
aF-3426
aF-3271
aF-2634
aF-709
aF1885
aF2816
aF1421
aF-1638
aF-4143
aF-4953
aF-3739
aF-366
aF2794
aF3623
aF1906
aF-1669
aF-4280
aF-4482
aF-3475
aF-2138
aF-854
aF432
aF1547
aF1663
aF198
aF-2264
aF-3982
aF-4113
aF-2965
aF-1131
aF521
aF1252
aF1099
aF139
aF-1484
aF-2837
aF-3332
aF-3293
aF-2756
aF-1406
aF422
aF1896
aF2044
aF-16
aF-3018
aF-4564
aF-4209
aF-2399
aF-25
aF1253
aF1146
aF19
aF-1944
aF-3194
aF-2799
aF-1323
aF-344
aF-930
aF-2335
aF-2842
aF-1519
aF720
aF1692
aF480
aF-1833
aF-3664
aF-4223
aF-3322
aF-1081
aF1495
aF2521
aF1208
aF-1574
aF-3806
aF-4267
aF-3210
aF-1087
aF1035
aF1644
aF407
aF-1667
aF-3167
aF-3010
aF-1380
aF-185
aF-611
aF-1698
aF-2184
aF-1389
aF109
aF267
aF-1059
aF-2331
aF-2701
aF-2136
aF-1273
aF-733
aF-397
aF-419
aF-1164
aF-2255
aF-2586
aF-1707
aF-332
aF71
aF-994
aF-2353
aF-2788
aF-2122
aF-739
aF567
aF1054
aF324
aF-1637
aF-3640
aF-4470
aF-3637
aF-734
aF2476
aF3556
aF2198
aF-1114
aF-4218
aF-5081
aF-4385
aF-2018
aF1603
aF3707
aF3747
aF1192
aF-3175
aF-5784
aF-5635
aF-3554
aF248
aF3257
aF3422
aF1581
aF-1703
aF-4222
aF-4870
aF-4048
aF-1630
aF1095
aF2467
aF2052
aF266
aF-1967
aF-3552
aF-4065
aF-3562
aF-2095
aF-66
aF1559
aF1720
aF178
aF-2105
aF-3556
aF-3428
aF-1829
aF172
aF788
aF-267
aF-1883
aF-2726
aF-2237
aF-981
aF-60
aF-205
aF-1182
aF-2205
aF-2657
aF-2397
aF-1630
aF-858
aF-271
aF144
aF222
aF-338
aF-1845
aF-3485
aF-3952
aF-3116
aF-893
aF1870
aF2807
aF1504
aF-1268
aF-3537
aF-4523
aF-4398
aF-2361
aF1094
aF3541
aF3501
aF667
aF-3371
aF-5242
aF-4547
aF-2446
aF329
aF2063
aF2014
aF788
aF-775
aF-2161
aF-3238
aF-3743
aF-3375
aF-2233
aF-288
aF1789
aF2315
aF515
aF-2533
aF-4472
aF-4010
aF-1865
aF325
aF899
aF-200
aF-1321
aF-1178
aF-708
aF-1221
aF-2339
aF-3200
aF-3219
aF-2139
aF-263
aF1197
aF1165
aF-454
aF-2631
aF-3523
aF-2463
aF-672
aF-38
aF-1086
aF-2458
aF-2589
aF-1068
aF715
aF1196
aF215
aF-1780
aF-3954
aF-4917
aF-3972
aF-1188
aF2210
aF3603
aF2077
aF-1264
aF-4034
aF-4890
aF-4303
aF-2306
aF648
aF2602
aF2688
aF1143
aF-1118
aF-3143
aF-4526
aF-4662
aF-3708
aF-1244
aF1625
aF3421
aF3432
aF1108
aF-2404
aF-5108
aF-5879
aF-4844
aF-1359
aF2990
aF4373
aF3246
aF-468
aF-4611
aF-5721
aF-4739
aF-1636
aF2471
aF4314
aF3844
aF1508
aF-2388
aF-5007
aF-5179
aF-3903
aF-564
aF2735
aF3498
aF2037
aF-1437
aF-4361
aF-4965
aF-3577
aF-320
aF2615
aF2842
aF532
aF-2609
aF-4263
aF-3842
aF-1971
aF496
aF1839
aF955
aF-1584
aF-3867
aF-4194
aF-2486
aF564
aF2643
aF1982
aF-470
aF-3045
aF-4346
aF-3990
aF-2734
aF-1420
aF282
aF1664
aF1673
aF327
aF-1926
aF-4050
aF-4629
aF-3583
aF-1193
aF1573
aF2973
aF2253
aF17
aF-2792
aF-4414
aF-4142
aF-3101
aF-993
aF1634
aF2722
aF2168
aF-621
aF-3810
aF-5167
aF-4285
aF-1147
aF2095
aF2968
aF1518
aF-789
aF-2563
aF-3191
aF-2900
aF-2259
aF-1683
aF-1470
aF-1459
aF-1045
aF-98
aF628
aF303
aF-1073
aF-2880
aF-3920
aF-3682
aF-2277
aF73
aF2154
aF2688
aF1165
aF-1972
aF-4766
aF-5340
aF-3536
aF-162
aF2571
aF2899
aF1222
aF-1530
aF-3693
aF-4449
aF-3879
aF-1704
aF1038
aF2033
aF791
aF-1426
aF-2978
aF-2781
aF-1576
aF-711
aF-1049
aF-2196
aF-2947
aF-2372
aF-375
aF1590
aF1802
aF-141
aF-2893
aF-4486
aF-4193
aF-2142
aF560
aF2196
aF2060
aF326
aF-2159
aF-3957
aF-4139
aF-2571
aF-247
aF852
aF124
aF-1183
aF-1712
aF-1279
aF-791
aF-1238
aF-2152
aF-2547
aF-2564
aF-2004
aF-595
aF615
aF923
aF104
aF-1650
aF-3132
aF-3444
aF-2774
aF-1526
aF-140
aF653
aF564
aF-551
aF-2213
aF-3174
aF-2704
aF-1527
aF-797
aF-592
aF-1037
aF-1516
aF-1315
aF-782
aF-536
aF-862
aF-1997
aF-3210
aF-3515
aF-2419
aF75
aF2216
aF2230
aF69
aF-2948
aF-4792
aF-4709
aF-2563
aF1019
aF3394
aF3077
aF131
aF-3542
aF-5085
aF-4257
aF-1521
aF1738
aF2839
aF1286
aF-1446
aF-3296
aF-3420
aF-2410
aF-948
aF-305
aF-919
aF-1543
aF-1414
aF-1035
aF-570
aF-822
aF-2016
aF-2563
aF-1981
aF-1101
aF-698
aF-997
aF-1558
aF-1831
aF-1532
aF-915
aF-471
aF-438
aF-979
aF-2255
aF-3423
aF-3391
aF-2021
aF369
aF2177
aF1738
aF-505
aF-2899
aF-4183
aF-4148
aF-2929
aF-908
aF1168
aF2439
aF2128
aF-119
aF-3344
aF-5175
aF-4738
aF-2212
aF1504
aF3384
aF2726
aF-24
aF-3394
aF-4924
aF-4689
aF-2406
aF1301
aF3671
aF3508
aF1136
aF-2532
aF-4850
aF-4845
aF-3039
aF559
aF3366
aF3155
aF429
aF-3002
aF-4806
aF-4186
aF-2268
aF-245
aF1181
aF1052
aF-365
aF-1936
aF-2856
aF-3012
aF-2237
aF-1155
aF-363
aF199
aF313
aF-439
aF-1978
aF-3395
aF-3699
aF-2540
aF-330
aF1573
aF1761
aF-34
aF-2551
aF-3817
aF-3508
aF-1746
aF616
aF1658
aF1059
aF-518
aF-2056
aF-2984
aF-3429
aF-3470
aF-2742
aF-916
aF1202
aF2270
aF1746
aF-479
aF-3627
aF-5289
aF-4918
aF-2533
aF700
aF2940
aF2767
aF668
aF-1757
aF-3836
aF-4505
aF-3773
aF-2234
aF303
aF2428
aF2739
aF1235
aF-1656
aF-4494
aF-5513
aF-4488
aF-1537
aF2106
aF3896
aF3141
aF48
aF-3642
aF-5360
aF-5079
aF-2647
aF1444
aF4123
aF3955
aF1159
aF-2944
aF-5250
aF-4948
aF-2576
aF1288
aF3494
aF2867
aF-98
aF-3522
aF-4836
aF-4184
aF-2038
aF1140
aF2897
aF2191
aF-514
aF-3544
aF-4584
aF-3937
aF-1766
aF1352
aF3079
aF2774
aF651
aF-2635
aF-4881
aF-4916
aF-3022
aF612
aF3319
aF3602
aF1368
aF-2611
aF-5194
aF-5403
aF-3642
aF286
aF3422
aF3636
aF1771
aF-1998
aF-4856
aF-5170
aF-4244
aF-1518
aF2258
aF4063
aF3136
aF25
aF-3646
aF-5029
aF-4240
aF-1897
aF1138
aF2505
aF1727
aF-347
aF-2539
aF-3594
aF-3437
aF-2431
aF-904
aF267
aF331
aF-476
aF-1246
aF-1613
aF-2014
aF-2399
aF-2241
aF-1750
aF-1138
aF-532
aF-294
aF-783
aF-1491
aF-1788
aF-2071
aF-2188
aF-1891
aF-1422
aF-1026
aF-808
aF-981
aF-1389
aF-1596
aF-1288
aF-658
aF-399
aF-1153
aF-2721
aF-3844
aF-3340
aF-1036
aF1653
aF2450
aF519
aF-2438
aF-4117
aF-3982
aF-2205
aF123
aF1255
aF636
aF-1020
aF-2452
aF-2538
aF-1435
aF-388
aF-855
aF-2643
aF-3370
aF-2051
aF580
aF2523
aF1981
aF-938
aF-4050
aF-5125
aF-3942
aF-997
aF2171
aF3338
aF1888
aF-1242
aF-3882
aF-4523
aF-3486
aF-1132
aF1103
aF1920
aF1562
aF285
aF-1678
aF-3506
aF-4181
aF-3464
aF-1722
aF247
aF1535
aF1333
aF6
aF-1599
aF-3161
aF-3465
aF-2512
aF-1456
aF-305
aF821
aF580
aF-295
aF-1334
aF-2291
aF-3002
aF-3106
aF-2330
aF-1088
aF116
aF633
aF188
aF-815
aF-2118
aF-2922
aF-2640
aF-1731
aF-718
aF-167
aF-573
aF-1263
aF-1505
aF-1555
aF-1789
aF-1759
aF-1315
aF-1037
aF-1371
aF-2080
aF-2263
aF-1041
aF722
aF955
aF-686
aF-2680
aF-3489
aF-2735
aF-996
aF514
aF863
aF-25
aF-1434
aF-2770
aF-3273
aF-2272
aF-540
aF394
aF139
aF-1322
aF-2749
aF-2674
aF-1396
aF-63
aF229
aF-892
aF-2162
aF-2519
aF-2230
aF-1417
aF-427
aF-14
aF-344
aF-1015
aF-1821
aF-2496
aF-2682
aF-2401
aF-1714
aF-296
aF1160
aF1351
aF-435
aF-3110
aF-4599
aF-4006
aF-1562
aF1489
aF2871
aF1878
aF-586
aF-3215
aF-4659
aF-4229
aF-2418
aF-1
aF1894
aF2010
aF419
aF-1786
aF-3404
aF-4014
aF-3661
aF-2179
aF201
aF2124
aF2223
aF396
aF-2270
aF-4031
aF-4348
aF-3385
aF-867
aF1891
aF2909
aF1668
aF-1318
aF-4025
aF-4792
aF-3483
aF-448
aF2349
aF2870
aF980
aF-2009
aF-4191
aF-4446
aF-2892
aF-190
aF1908
aF1885
aF-47
aF-2374
aF-3631
aF-3424
aF-2186
aF-727
aF154
aF15
aF-830
aF-1555
aF-1687
aF-1505
aF-1532
aF-1949
aF-2262
aF-1972
aF-1044
aF-240
aF-38
aF-544
aF-1545
aF-2117
aF-2480
aF-2902
aF-2322
aF-672
aF983
aF1149
aF-669
aF-3151
aF-4356
aF-3479
aF-704
aF1968
aF2611
aF1008
aF-1866
aF-4208
aF-4590
aF-2973
aF-37
aF2109
aF2002
aF307
aF-1997
aF-3460
aF-3731
aF-3244
aF-1775
aF217
aF1484
aF1094
aF-563
aF-2366
aF-3525
aF-3803
aF-2962
aF-1039
aF1466
aF2955
aF1893
aF-1505
aF-4693
aF-5476
aF-4037
aF-584
aF3073
aF4082
aF2632
aF-960
aF-4481
aF-5534
aF-4606
aF-957
aF2964
aF4023
aF2875
aF-1335
aF-5050
aF-5366
aF-4048
aF-272
aF2957
aF3298
aF2069
aF-2084
aF-5375
aF-5373
aF-3770
aF-254
aF2912
aF3588
aF2655
aF-13
aF-3397
aF-5340
aF-5556
aF-3733
aF187
aF3602
aF4421
aF2321
aF-1902
aF-5072
aF-5393
aF-3666
aF67
aF3300
aF3505
aF1097
aF-2475
aF-4590
aF-4647
aF-3332
aF-969
aF1387
aF2537
aF1926
aF-532
aF-3349
aF-4410
aF-3595
aF-1210
aF1428
aF2233
aF1055
aF-1163
aF-3513
aF-4711
aF-4113
aF-1808
aF1325
aF3076
aF1842
aF-1407
aF-4090
aF-4660
aF-3303
aF-707
aF1641
aF2112
aF682
aF-1757
aF-3451
aF-3377
aF-2300
aF-818
aF169
aF-248
aF-958
aF-1081
aF-979
aF-1410
aF-2202
aF-2484
aF-2300
aF-1874
aF-1275
aF-429
aF495
aF852
aF-237
aF-2552
aF-4055
aF-3715
aF-1826
aF1037
aF2692
aF1900
aF-609
aF-3180
aF-4408
aF-4124
aF-2618
aF-549
aF903
aF1216
aF642
aF-529
aF-2187
aF-3751
aF-4397
aF-3665
aF-1274
aF1677
aF3194
aF2096
aF-925
aF-3992
aF-5396
aF-4522
aF-1909
aF1484
aF3275
aF2370
aF-409
aF-3365
aF-4588
aF-4070
aF-2602
aF-398
aF1690
aF2295
aF1167
aF-1127
aF-3618
aF-4803
aF-4090
aF-1625
aF1468
aF3076
aF2337
aF-856
aF-4010
aF-5208
aF-4245
aF-953
aF2604
aF3212
aF1019
aF-2334
aF-4442
aF-4066
aF-2516
aF-35
aF2428
aF2634
aF195
aF-3243
aF-5004
aF-4337
aF-1525
aF1907
aF3269
aF1996
aF-1053
aF-3970
aF-4986
aF-4085
aF-1271
aF2042
aF3087
aF1459
aF-1231
aF-3491
aF-4022
aF-3323
aF-2337
aF-225
aF2007
aF2459
aF933
aF-1998
aF-4202
aF-4280
aF-2955
aF-595
aF1716
aF2397
aF1426
aF-799
aF-3245
aF-4595
aF-4194
aF-2208
aF491
aF2133
aF1702
aF-219
aF-2424
aF-3724
aF-3838
aF-2837
aF-810
aF1391
aF2041
aF250
aF-2698
aF-4401
aF-3704
aF-1140
aF1665
aF2284
aF49
aF-3125
aF-4647
aF-3595
aF-445
aF2630
aF2842
aF-38
aF-3605
aF-4734
aF-3612
aF-693
aF2513
aF3370
aF1724
aF-1716
aF-4671
aF-5216
aF-3731
aF-439
aF2859
aF3359
aF1058
aF-2433
aF-4466
aF-4342
aF-3043
aF-930
aF1090
aF2091
aF1640
aF-246
aF-2552
aF-3768
aF-3724
aF-2811
aF-934
aF1166
aF2312
aF1738
aF-619
aF-3300
aF-4264
aF-3547
aF-1607
aF819
aF1880
aF1295
aF-443
aF-2656
aF-4268
aF-3960
aF-1370
aF1611
aF2298
aF231
aF-2665
aF-3999
aF-3376
aF-1558
aF580
aF1522
aF882
aF-881
aF-2743
aF-3592
aF-3188
aF-1380
aF597
aF1080
aF313
aF-745
aF-1909
aF-3123
aF-3792
aF-3107
aF-814
aF1651
aF2173
aF333
aF-2317
aF-3677
aF-3457
aF-2614
aF-1320
aF12
aF634
aF625
aF213
aF-691
aF-2105
aF-3308
aF-3768
aF-3447
aF-1615
aF1197
aF2838
aF2401
aF-41
aF-3298
aF-5184
aF-5108
aF-3327
aF356
aF3633
aF3987
aF1691
aF-2373
aF-5173
aF-5124
aF-3641
aF-700
aF2351
aF3561
aF3142
aF851
aF-2916
aF-5755
aF-6158
aF-4398
aF-879
aF2893
aF4091
aF2834
aF-640
aF-4403
aF-5856
aF-5196
aF-2285
aF1944
aF4195
aF3413
aF522
aF-3231
aF-5133
aF-4824
aF-2641
aF1366
aF4056
aF3405
aF62
aF-3826
aF-5064
aF-3691
aF-1385
aF989
aF1763
aF796
aF-703
aF-1991
aF-3117
aF-3261
aF-2355
aF-1172
aF50
aF636
aF73
aF-1428
aF-2951
aF-3515
aF-2845
aF-1243
aF627
aF1513
aF621
aF-1535
aF-3635
aF-4363
aF-3490
aF-1236
aF1571
aF3044
aF2056
aF-957
aF-4087
aF-5076
aF-3817
aF-1227
aF1512
aF2529
aF1653
aF-319
aF-2529
aF-3880
aF-4268
aF-3415
aF-1013
aF1630
aF2986
aF2360
aF-460
aF-3642
aF-5164
aF-4717
aF-2642
aF109
aF1929
aF2137
aF1076
aF-840
aF-2817
aF-4275
aF-4735
aF-3276
aF-104
aF2669
aF3015
aF930
aF-2329
aF-4295
aF-4214
aF-3055
aF-1185
aF612
aF1559
aF1411
aF306
aF-1777
aF-3661
aF-3983
aF-2960
aF-674
aF1646
aF2113
aF753
aF-1620
aF-3614
aF-4026
aF-3118
aF-1545
aF-54
aF908
aF964
aF-220
aF-2106
aF-3658
aF-4001
aF-2572
aF60
aF1978
aF1726
aF-496
aF-3157
aF-4519
aF-3947
aF-1428
aF1682
aF3022
aF1747
aF-1481
aF-4347
aF-5020
aF-3195
aF450
aF3147
aF2978
aF345
aF-2950
aF-4421
aF-3860
aF-2175
aF-101
aF1048
aF1152
aF729
aF-292
aF-1942
aF-3562
aF-4215
aF-3526
aF-1584
aF1243
aF3368
aF2762
aF-199
aF-3951
aF-5773
aF-4658
aF-1470
aF2557
aF4123
aF3045
aF-573
aF-4675
aF-5728
aF-4479
aF-1582
aF2137
aF3326
aF2477
aF-614
aF-4409
aF-5630
aF-4727
aF-1773
aF2347
aF4391
aF3349
aF-4
aF-3718
aF-5281
aF-4675
aF-2218
aF1354
aF3322
aF2668
aF283
aF-2696
aF-4391
aF-3963
aF-2436
aF-6
aF1926
aF1734
aF-73
aF-2127
aF-3219
aF-3238
aF-2703
aF-1826
aF-865
aF-200
aF-253
aF-1015
aF-1459
aF-1246
aF-995
aF-1389
aF-2338
aF-2739
aF-2117
aF-1098
aF101
aF875
aF-4
aF-1670
aF-2647
aF-2567
aF-1896
aF-1316
aF-1344
aF-1884
aF-1617
aF20
aF1424
aF720
aF-1975
aF-4193
aF-4252
aF-2367
aF996
aF3261
aF2702
aF-269
aF-3746
aF-5222
aF-4392
aF-1746
aF1703
aF3211
aF1953
aF-1104
aF-3757
aF-4260
aF-3215
aF-1216
aF967
aF1666
aF692
aF-1031
aF-2633
aF-3439
aF-2946
aF-1453
aF34
aF679
aF-4
aF-1657
aF-2978
aF-3121
aF-2009
aF-155
aF1133
aF731
aF-1121
aF-3169
aF-4041
aF-3168
aF-873
aF1323
aF1951
aF804
aF-1337
aF-3209
aF-3937
aF-3575
aF-2036
aF309
aF2022
aF1927
aF63
aF-2450
aF-4075
aF-4015
aF-2624
aF-925
aF414
aF899
aF285
aF-681
aF-1446
aF-1978
aF-2846
aF-3543
aF-3273
aF-1775
aF744
aF2548
aF2076
aF-307
aF-3082
aF-4665
aF-4623
aF-3197
aF-678
aF1901
aF2977
aF2040
aF-544
aF-3356
aF-4563
aF-4216
aF-3047
aF-1080
aF1070
aF2294
aF2057
aF362
aF-2089
aF-3977
aF-4608
aF-4150
aF-2431
aF562
aF3131
aF3383
aF1198
aF-2380
aF-4770
aF-4869
aF-3582
aF-791
aF2438
aF3987
aF3358
aF387
aF-3758
aF-5839
aF-5085
aF-2287
aF1830
aF4132
aF3179
aF122
aF-3196
aF-4774
aF-4258
aF-2348
aF38
aF1100
aF319
aF-1174
aF-2200
aF-2002
aF-1129
aF-661
aF-627
aF-935
aF-1802
aF-2953
aF-3236
aF-1955
aF289
aF1892
aF1413
aF-932
aF-3297
aF-4096
aF-3531
aF-1992
aF161
aF1602
aF1607
aF504
aF-1141
aF-2734
aF-3815
aF-4169
aF-3634
aF-1876
aF979
aF3061
aF2890
aF307
aF-3163
aF-5006
aF-5103
aF-3196
aF759
aF3954
aF4470
aF2111
aF-2274
aF-5439
aF-5755
aF-4256
aF-1217
aF2393
aF3847
aF2927
aF179
aF-3319
aF-4978
aF-4859
aF-3023
aF613
aF3493
aF3971
aF1978
aF-1887
aF-4768
aF-5153
aF-3762
aF-676
aF2191
aF2531
aF605
aF-1987
aF-3438
aF-3114
aF-1773
aF-496
aF-190
aF-870
aF-1680
aF-1768
aF-1479
aF-1719
aF-1134
aF-530
aF-460
aF-1029
aF-1888
as.